
openmote-demo.elf:     file format elf32-littlearm


Disassembly of section .text:

00202000 <_text>:
  202000:	200015d8 	.word	0x200015d8
  202004:	0020228d 	.word	0x0020228d
  202008:	00205a1b 	.word	0x00205a1b
  20200c:	00205a19 	.word	0x00205a19
  202010:	00205a19 	.word	0x00205a19
  202014:	00205a19 	.word	0x00205a19
  202018:	00205a19 	.word	0x00205a19
	...
  20202c:	00205a19 	.word	0x00205a19
  202030:	00205a19 	.word	0x00205a19
  202034:	00000000 	.word	0x00000000
  202038:	00205a19 	.word	0x00205a19
  20203c:	00205a7d 	.word	0x00205a7d
  202040:	00205a9f 	.word	0x00205a9f
  202044:	00205aa5 	.word	0x00205aa5
  202048:	00205aab 	.word	0x00205aab
  20204c:	00205ab1 	.word	0x00205ab1
  202050:	00000000 	.word	0x00000000
  202054:	00205a83 	.word	0x00205a83
  202058:	00205a89 	.word	0x00205a89
  20205c:	00205a19 	.word	0x00205a19
  202060:	00205a19 	.word	0x00205a19
	...
  202078:	00205a19 	.word	0x00205a19
	...
  202088:	00205a19 	.word	0x00205a19
  20208c:	00205a19 	.word	0x00205a19
  202090:	00205a19 	.word	0x00205a19
  202094:	00205a19 	.word	0x00205a19
  202098:	00205a19 	.word	0x00205a19
  20209c:	00205a19 	.word	0x00205a19
  2020a0:	00205a19 	.word	0x00205a19
  2020a4:	00205a19 	.word	0x00205a19
  2020a8:	00205a19 	.word	0x00205a19
  2020ac:	00205a19 	.word	0x00205a19
  2020b0:	00205a19 	.word	0x00205a19
  2020b4:	00205a19 	.word	0x00205a19
  2020b8:	00205a19 	.word	0x00205a19
  2020bc:	00205a19 	.word	0x00205a19
  2020c0:	00205a19 	.word	0x00205a19
  2020c4:	00205a19 	.word	0x00205a19
  2020c8:	00205a19 	.word	0x00205a19
  2020cc:	00205a19 	.word	0x00205a19
  2020d0:	00205a19 	.word	0x00205a19
	...
  2020f8:	00203309 	.word	0x00203309
  2020fc:	00203319 	.word	0x00203319
	...
  202270:	00205a19 	.word	0x00205a19
  202274:	002031fd 	.word	0x002031fd
  202278:	00203215 	.word	0x00203215
  20227c:	00202afd 	.word	0x00202afd
  202280:	00203489 	.word	0x00203489
  202284:	002026b5 	.word	0x002026b5
  202288:	00205a19 	.word	0x00205a19

0020228c <reset_handler>:
  20228c:	b508      	push	{r3, lr}
  20228e:	4b09      	ldr	r3, [pc, #36]	; (2022b4 <reset_handler+0x28>)
  202290:	22ff      	movs	r2, #255	; 0xff
  202292:	601a      	str	r2, [r3, #0]
  202294:	4808      	ldr	r0, [pc, #32]	; (2022b8 <reset_handler+0x2c>)
  202296:	4a09      	ldr	r2, [pc, #36]	; (2022bc <reset_handler+0x30>)
  202298:	2448      	movs	r4, #72	; 0x48
  20229a:	69e3      	ldr	r3, [r4, #28]
  20229c:	1a12      	subs	r2, r2, r0
  20229e:	4908      	ldr	r1, [pc, #32]	; (2022c0 <reset_handler+0x34>)
  2022a0:	4798      	blx	r3
  2022a2:	4808      	ldr	r0, [pc, #32]	; (2022c4 <reset_handler+0x38>)
  2022a4:	4a08      	ldr	r2, [pc, #32]	; (2022c8 <reset_handler+0x3c>)
  2022a6:	69a3      	ldr	r3, [r4, #24]
  2022a8:	1a12      	subs	r2, r2, r0
  2022aa:	2100      	movs	r1, #0
  2022ac:	4798      	blx	r3
  2022ae:	f000 f80d 	bl	2022cc <main>
  2022b2:	e7fe      	b.n	2022b2 <reset_handler+0x26>
  2022b4:	400d20b4 	.word	0x400d20b4
  2022b8:	20000040 	.word	0x20000040
  2022bc:	200000ef 	.word	0x200000ef
  2022c0:	00206698 	.word	0x00206698
  2022c4:	200000f0 	.word	0x200000f0
  2022c8:	20000dd8 	.word	0x20000dd8

002022cc <main>:
  2022cc:	b573      	push	{r0, r1, r4, r5, r6, lr}
  2022ce:	f000 fb3f 	bl	202950 <nvic_init>
  2022d2:	f000 fbe9 	bl	202aa8 <ioc_init>
  2022d6:	f000 fb83 	bl	2029e0 <sys_ctrl_init>
  2022da:	f000 f953 	bl	202584 <clock_init>
  2022de:	f001 f8c1 	bl	203464 <lpm_init>
  2022e2:	f003 fc3b 	bl	205b5c <rtimer_init>
  2022e6:	f000 fbd7 	bl	202a98 <gpio_init>
  2022ea:	f001 ff61 	bl	2041b0 <leds_init>
  2022ee:	2010      	movs	r0, #16
  2022f0:	f003 fb96 	bl	205a20 <fade>
  2022f4:	f001 fe76 	bl	203fe4 <process_init>
  2022f8:	f000 fb16 	bl	202928 <watchdog_init>
  2022fc:	2000      	movs	r0, #0
  2022fe:	f000 fa37 	bl	202770 <uart_init>
  202302:	2001      	movs	r0, #1
  202304:	f000 fa34 	bl	202770 <uart_init>
  202308:	493f      	ldr	r1, [pc, #252]	; (202408 <main+0x13c>)
  20230a:	2000      	movs	r0, #0
  20230c:	f000 faf6 	bl	2028fc <uart_set_input>
  202310:	f001 ffe2 	bl	2042d8 <serial_line_init>
  202314:	f003 fbbb 	bl	205a8e <cpu_cpsie>
  202318:	2040      	movs	r0, #64	; 0x40
  20231a:	f003 fb81 	bl	205a20 <fade>
  20231e:	483b      	ldr	r0, [pc, #236]	; (20240c <main+0x140>)
  202320:	f003 fbea 	bl	205af8 <puts>
  202324:	483a      	ldr	r0, [pc, #232]	; (202410 <main+0x144>)
  202326:	f003 fbe7 	bl	205af8 <puts>
  20232a:	2000      	movs	r0, #0
  20232c:	f001 fff6 	bl	20431c <random_init>
  202330:	f000 ff84 	bl	20323c <udma_init>
  202334:	2100      	movs	r1, #0
  202336:	4837      	ldr	r0, [pc, #220]	; (202414 <main+0x148>)
  202338:	f001 fef0 	bl	20411c <process_start>
  20233c:	f001 fcbe 	bl	203cbc <ctimer_init>
  202340:	f003 fb9a 	bl	205a78 <board_init>
  202344:	f000 fbfc 	bl	202b40 <crypto_init>
  202348:	f000 fc18 	bl	202b7c <crypto_disable>
  20234c:	f002 fa28 	bl	2047a0 <netstack_init>
  202350:	2108      	movs	r1, #8
  202352:	4668      	mov	r0, sp
  202354:	f001 f8aa 	bl	2034ac <ieee_addr_cpy_to>
  202358:	f89d 3007 	ldrb.w	r3, [sp, #7]
  20235c:	f89d 5006 	ldrb.w	r5, [sp, #6]
  202360:	4c2d      	ldr	r4, [pc, #180]	; (202418 <main+0x14c>)
  202362:	ea43 2505 	orr.w	r5, r3, r5, lsl #8
  202366:	f8bd 3006 	ldrh.w	r3, [sp, #6]
  20236a:	482c      	ldr	r0, [pc, #176]	; (20241c <main+0x150>)
  20236c:	8023      	strh	r3, [r4, #0]
  20236e:	f001 f8d7 	bl	203520 <printf>
  202372:	4e2b      	ldr	r6, [pc, #172]	; (202420 <main+0x154>)
  202374:	7821      	ldrb	r1, [r4, #0]
  202376:	482b      	ldr	r0, [pc, #172]	; (202424 <main+0x158>)
  202378:	f001 f8d2 	bl	203520 <printf>
  20237c:	7861      	ldrb	r1, [r4, #1]
  20237e:	482a      	ldr	r0, [pc, #168]	; (202428 <main+0x15c>)
  202380:	f001 f8ce 	bl	203520 <printf>
  202384:	6af4      	ldr	r4, [r6, #44]	; 0x2c
  202386:	f64a 31cd 	movw	r1, #43981	; 0xabcd
  20238a:	2002      	movs	r0, #2
  20238c:	47a0      	blx	r4
  20238e:	4629      	mov	r1, r5
  202390:	2003      	movs	r0, #3
  202392:	47a0      	blx	r4
  202394:	211a      	movs	r1, #26
  202396:	2001      	movs	r0, #1
  202398:	47a0      	blx	r4
  20239a:	2208      	movs	r2, #8
  20239c:	4669      	mov	r1, sp
  20239e:	6b73      	ldr	r3, [r6, #52]	; 0x34
  2023a0:	200b      	movs	r0, #11
  2023a2:	4798      	blx	r3
  2023a4:	4821      	ldr	r0, [pc, #132]	; (20242c <main+0x160>)
  2023a6:	f001 f8bb 	bl	203520 <printf>
  2023aa:	4b21      	ldr	r3, [pc, #132]	; (202430 <main+0x164>)
  2023ac:	6818      	ldr	r0, [r3, #0]
  2023ae:	f003 fba3 	bl	205af8 <puts>
  2023b2:	4820      	ldr	r0, [pc, #128]	; (202434 <main+0x168>)
  2023b4:	f001 f8b4 	bl	203520 <printf>
  2023b8:	4b1f      	ldr	r3, [pc, #124]	; (202438 <main+0x16c>)
  2023ba:	6818      	ldr	r0, [r3, #0]
  2023bc:	f003 fb9c 	bl	205af8 <puts>
  2023c0:	481e      	ldr	r0, [pc, #120]	; (20243c <main+0x170>)
  2023c2:	f001 f8ad 	bl	203520 <printf>
  2023c6:	4b1e      	ldr	r3, [pc, #120]	; (202440 <main+0x174>)
  2023c8:	6818      	ldr	r0, [r3, #0]
  2023ca:	f003 fb95 	bl	205af8 <puts>
  2023ce:	2100      	movs	r1, #0
  2023d0:	481c      	ldr	r0, [pc, #112]	; (202444 <main+0x178>)
  2023d2:	f001 fea3 	bl	20411c <process_start>
  2023d6:	4b1c      	ldr	r3, [pc, #112]	; (202448 <main+0x17c>)
  2023d8:	2101      	movs	r1, #1
  2023da:	689b      	ldr	r3, [r3, #8]
  2023dc:	2081      	movs	r0, #129	; 0x81
  2023de:	4798      	blx	r3
  2023e0:	f003 fbac 	bl	205b3c <energest_init>
  2023e4:	4819      	ldr	r0, [pc, #100]	; (20244c <main+0x180>)
  2023e6:	f003 fb9f 	bl	205b28 <autostart_start>
  2023ea:	f000 faa3 	bl	202934 <watchdog_start>
  2023ee:	2080      	movs	r0, #128	; 0x80
  2023f0:	f003 fb16 	bl	205a20 <fade>
  2023f4:	f000 faa4 	bl	202940 <watchdog_periodic>
  2023f8:	f001 fe0c 	bl	204014 <process_run>
  2023fc:	f010 0fff 	tst.w	r0, #255	; 0xff
  202400:	d1f8      	bne.n	2023f4 <main+0x128>
  202402:	f000 ffc3 	bl	20338c <lpm_enter>
  202406:	e7f5      	b.n	2023f4 <main+0x128>
  202408:	00204295 	.word	0x00204295
  20240c:	0020651a 	.word	0x0020651a
  202410:	00206534 	.word	0x00206534
  202414:	20000070 	.word	0x20000070
  202418:	20000d96 	.word	0x20000d96
  20241c:	00206544 	.word	0x00206544
  202420:	002063d4 	.word	0x002063d4
  202424:	00206562 	.word	0x00206562
  202428:	00206568 	.word	0x00206568
  20242c:	0020656e 	.word	0x0020656e
  202430:	00206498 	.word	0x00206498
  202434:	00206575 	.word	0x00206575
  202438:	002064a4 	.word	0x002064a4
  20243c:	0020657c 	.word	0x0020657c
  202440:	002064cc 	.word	0x002064cc
  202444:	20000090 	.word	0x20000090
  202448:	0020636c 	.word	0x0020636c
  20244c:	00206508 	.word	0x00206508

00202450 <leds_arch_init>:
  202450:	4a02      	ldr	r2, [pc, #8]	; (20245c <leds_arch_init+0xc>)
  202452:	6813      	ldr	r3, [r2, #0]
  202454:	f043 03f0 	orr.w	r3, r3, #240	; 0xf0
  202458:	6013      	str	r3, [r2, #0]
  20245a:	4770      	bx	lr
  20245c:	400db400 	.word	0x400db400

00202460 <leds_arch_set>:
  202460:	4b01      	ldr	r3, [pc, #4]	; (202468 <leds_arch_set+0x8>)
  202462:	6018      	str	r0, [r3, #0]
  202464:	4770      	bx	lr
  202466:	bf00      	nop
  202468:	400db3c0 	.word	0x400db3c0

0020246c <btn_callback>:
  20246c:	b510      	push	{r4, lr}
  20246e:	4604      	mov	r4, r0
  202470:	4807      	ldr	r0, [pc, #28]	; (202490 <btn_callback+0x24>)
  202472:	f003 fb7c 	bl	205b6e <timer_expired>
  202476:	b150      	cbz	r0, 20248e <btn_callback+0x22>
  202478:	2110      	movs	r1, #16
  20247a:	4805      	ldr	r0, [pc, #20]	; (202490 <btn_callback+0x24>)
  20247c:	f003 fb70 	bl	205b60 <timer_set>
  202480:	2c02      	cmp	r4, #2
  202482:	d104      	bne.n	20248e <btn_callback+0x22>
  202484:	e8bd 4010 	ldmia.w	sp!, {r4, lr}
  202488:	4802      	ldr	r0, [pc, #8]	; (202494 <btn_callback+0x28>)
  20248a:	f001 bff3 	b.w	204474 <sensors_changed>
  20248e:	bd10      	pop	{r4, pc}
  202490:	20000100 	.word	0x20000100
  202494:	0020636c 	.word	0x0020636c

00202498 <config_user>:
  202498:	b508      	push	{r3, lr}
  20249a:	4a19      	ldr	r2, [pc, #100]	; (202500 <config_user+0x68>)
  20249c:	2103      	movs	r1, #3
  20249e:	6813      	ldr	r3, [r2, #0]
  2024a0:	2002      	movs	r0, #2
  2024a2:	f023 0308 	bic.w	r3, r3, #8
  2024a6:	6013      	str	r3, [r2, #0]
  2024a8:	f852 3c20 	ldr.w	r3, [r2, #-32]
  2024ac:	f023 0308 	bic.w	r3, r3, #8
  2024b0:	f842 3c20 	str.w	r3, [r2, #-32]
  2024b4:	f852 3c1c 	ldr.w	r3, [r2, #-28]
  2024b8:	f023 0308 	bic.w	r3, r3, #8
  2024bc:	f842 3c1c 	str.w	r3, [r2, #-28]
  2024c0:	f852 3c18 	ldr.w	r3, [r2, #-24]
  2024c4:	f023 0308 	bic.w	r3, r3, #8
  2024c8:	f842 3c18 	str.w	r3, [r2, #-24]
  2024cc:	f852 3c14 	ldr.w	r3, [r2, #-20]
  2024d0:	f043 0308 	orr.w	r3, r3, #8
  2024d4:	f842 3c14 	str.w	r3, [r2, #-20]
  2024d8:	f852 3c10 	ldr.w	r3, [r2, #-16]
  2024dc:	f043 0308 	orr.w	r3, r3, #8
  2024e0:	f842 3c10 	str.w	r3, [r2, #-16]
  2024e4:	2204      	movs	r2, #4
  2024e6:	f000 faed 	bl	202ac4 <ioc_set_over>
  2024ea:	2002      	movs	r0, #2
  2024ec:	f000 fa4e 	bl	20298c <nvic_interrupt_enable>
  2024f0:	2203      	movs	r2, #3
  2024f2:	2102      	movs	r1, #2
  2024f4:	4803      	ldr	r0, [pc, #12]	; (202504 <config_user+0x6c>)
  2024f6:	f000 fa87 	bl	202a08 <gpio_register_callback>
  2024fa:	2001      	movs	r0, #1
  2024fc:	bd08      	pop	{r3, pc}
  2024fe:	bf00      	nop
  202500:	400db420 	.word	0x400db420
  202504:	0020246d 	.word	0x0020246d

00202508 <antenna_external>:
  202508:	4b03      	ldr	r3, [pc, #12]	; (202518 <antenna_external+0x10>)
  20250a:	2200      	movs	r2, #0
  20250c:	601a      	str	r2, [r3, #0]
  20250e:	2210      	movs	r2, #16
  202510:	f843 2c40 	str.w	r2, [r3, #-64]
  202514:	4770      	bx	lr
  202516:	bf00      	nop
  202518:	400dc080 	.word	0x400dc080

0020251c <antenna_init>:
  20251c:	4b05      	ldr	r3, [pc, #20]	; (202534 <antenna_init+0x18>)
  20251e:	681a      	ldr	r2, [r3, #0]
  202520:	f042 0220 	orr.w	r2, r2, #32
  202524:	601a      	str	r2, [r3, #0]
  202526:	681a      	ldr	r2, [r3, #0]
  202528:	f042 0210 	orr.w	r2, r2, #16
  20252c:	601a      	str	r2, [r3, #0]
  20252e:	f7ff bfeb 	b.w	202508 <antenna_external>
  202532:	bf00      	nop
  202534:	400dc400 	.word	0x400dc400

00202538 <update_ticks>:
  202538:	b5f8      	push	{r3, r4, r5, r6, r7, lr}
  20253a:	f000 f879 	bl	202630 <rtimer_arch_now>
  20253e:	4b0f      	ldr	r3, [pc, #60]	; (20257c <update_ticks+0x44>)
  202540:	2400      	movs	r4, #0
  202542:	e9d3 6700 	ldrd	r6, r7, [r3]
  202546:	463a      	mov	r2, r7
  202548:	42b0      	cmp	r0, r6
  20254a:	bf38      	it	cc
  20254c:	1c7a      	addcc	r2, r7, #1
  20254e:	4615      	mov	r5, r2
  202550:	4304      	orrs	r4, r0
  202552:	e9c3 4500 	strd	r4, r5, [r3]
  202556:	f8df e028 	ldr.w	lr, [pc, #40]	; 202580 <update_ticks+0x48>
  20255a:	e9de 0100 	ldrd	r0, r1, [lr]
  20255e:	1b82      	subs	r2, r0, r6
  202560:	eb61 0307 	sbc.w	r3, r1, r7
  202564:	1912      	adds	r2, r2, r4
  202566:	416b      	adcs	r3, r5
  202568:	e9ce 2300 	strd	r2, r3, [lr]
  20256c:	f001 fc9a 	bl	203ea4 <etimer_pending>
  202570:	b118      	cbz	r0, 20257a <update_ticks+0x42>
  202572:	e8bd 40f8 	ldmia.w	sp!, {r3, r4, r5, r6, r7, lr}
  202576:	f001 bc19 	b.w	203dac <etimer_request_poll>
  20257a:	bdf8      	pop	{r3, r4, r5, r6, r7, pc}
  20257c:	200000f0 	.word	0x200000f0
  202580:	200000f8 	.word	0x200000f8

00202584 <clock_init>:
  202584:	4b0f      	ldr	r3, [pc, #60]	; (2025c4 <clock_init+0x40>)
  202586:	4a10      	ldr	r2, [pc, #64]	; (2025c8 <clock_init+0x44>)
  202588:	601a      	str	r2, [r3, #0]
  20258a:	f853 2c04 	ldr.w	r2, [r3, #-4]
  20258e:	f042 0205 	orr.w	r2, r2, #5
  202592:	f843 2c04 	str.w	r2, [r3, #-4]
  202596:	f853 2c04 	ldr.w	r2, [r3, #-4]
  20259a:	f042 0202 	orr.w	r2, r2, #2
  20259e:	f843 2c04 	str.w	r2, [r3, #-4]
  2025a2:	4a0a      	ldr	r2, [pc, #40]	; (2025cc <clock_init+0x48>)
  2025a4:	6813      	ldr	r3, [r2, #0]
  2025a6:	f043 0301 	orr.w	r3, r3, #1
  2025aa:	6013      	str	r3, [r2, #0]
  2025ac:	4b08      	ldr	r3, [pc, #32]	; (2025d0 <clock_init+0x4c>)
  2025ae:	2200      	movs	r2, #0
  2025b0:	601a      	str	r2, [r3, #0]
  2025b2:	2204      	movs	r2, #4
  2025b4:	f843 2c0c 	str.w	r2, [r3, #-12]
  2025b8:	2201      	movs	r2, #1
  2025ba:	f843 2c08 	str.w	r2, [r3, #-8]
  2025be:	220f      	movs	r2, #15
  2025c0:	62da      	str	r2, [r3, #44]	; 0x2c
  2025c2:	4770      	bx	lr
  2025c4:	e000e014 	.word	0xe000e014
  2025c8:	0001e847 	.word	0x0001e847
  2025cc:	400d2008 	.word	0x400d2008
  2025d0:	4003000c 	.word	0x4003000c

002025d4 <clock_time>:
  2025d4:	4b03      	ldr	r3, [pc, #12]	; (2025e4 <clock_time+0x10>)
  2025d6:	e9d3 2300 	ldrd	r2, r3, [r3]
  2025da:	0a10      	lsrs	r0, r2, #8
  2025dc:	ea40 6003 	orr.w	r0, r0, r3, lsl #24
  2025e0:	4770      	bx	lr
  2025e2:	bf00      	nop
  2025e4:	200000f0 	.word	0x200000f0

002025e8 <clock_delay_usec>:
  2025e8:	4b05      	ldr	r3, [pc, #20]	; (202600 <clock_delay_usec+0x18>)
  2025ea:	6018      	str	r0, [r3, #0]
  2025ec:	3b1c      	subs	r3, #28
  2025ee:	681a      	ldr	r2, [r3, #0]
  2025f0:	f042 0201 	orr.w	r2, r2, #1
  2025f4:	601a      	str	r2, [r3, #0]
  2025f6:	681a      	ldr	r2, [r3, #0]
  2025f8:	07d2      	lsls	r2, r2, #31
  2025fa:	d4fc      	bmi.n	2025f6 <clock_delay_usec+0xe>
  2025fc:	4770      	bx	lr
  2025fe:	bf00      	nop
  202600:	40030028 	.word	0x40030028

00202604 <clock_adjust>:
  202604:	b510      	push	{r4, lr}
  202606:	4c06      	ldr	r4, [pc, #24]	; (202620 <clock_adjust+0x1c>)
  202608:	6823      	ldr	r3, [r4, #0]
  20260a:	f023 0301 	bic.w	r3, r3, #1
  20260e:	6023      	str	r3, [r4, #0]
  202610:	f7ff ff92 	bl	202538 <update_ticks>
  202614:	6823      	ldr	r3, [r4, #0]
  202616:	f043 0301 	orr.w	r3, r3, #1
  20261a:	6023      	str	r3, [r4, #0]
  20261c:	bd10      	pop	{r4, pc}
  20261e:	bf00      	nop
  202620:	e000e010 	.word	0xe000e010

00202624 <rtimer_arch_next_trigger>:
  202624:	4b01      	ldr	r3, [pc, #4]	; (20262c <rtimer_arch_next_trigger+0x8>)
  202626:	6818      	ldr	r0, [r3, #0]
  202628:	4770      	bx	lr
  20262a:	bf00      	nop
  20262c:	20000108 	.word	0x20000108

00202630 <rtimer_arch_now>:
  202630:	4b07      	ldr	r3, [pc, #28]	; (202650 <rtimer_arch_now+0x20>)
  202632:	4a08      	ldr	r2, [pc, #32]	; (202654 <rtimer_arch_now+0x24>)
  202634:	6819      	ldr	r1, [r3, #0]
  202636:	3304      	adds	r3, #4
  202638:	681b      	ldr	r3, [r3, #0]
  20263a:	6812      	ldr	r2, [r2, #0]
  20263c:	0412      	lsls	r2, r2, #16
  20263e:	ea42 2303 	orr.w	r3, r2, r3, lsl #8
  202642:	4a05      	ldr	r2, [pc, #20]	; (202658 <rtimer_arch_now+0x28>)
  202644:	430b      	orrs	r3, r1
  202646:	6810      	ldr	r0, [r2, #0]
  202648:	ea43 6000 	orr.w	r0, r3, r0, lsl #24
  20264c:	4770      	bx	lr
  20264e:	bf00      	nop
  202650:	400d5040 	.word	0x400d5040
  202654:	400d5048 	.word	0x400d5048
  202658:	400d504c 	.word	0x400d504c

0020265c <rtimer_arch_schedule>:
  20265c:	b510      	push	{r4, lr}
  20265e:	4604      	mov	r4, r0
  202660:	4a11      	ldr	r2, [pc, #68]	; (2026a8 <rtimer_arch_schedule+0x4c>)
  202662:	6813      	ldr	r3, [r2, #0]
  202664:	07db      	lsls	r3, r3, #31
  202666:	d5fc      	bpl.n	202662 <rtimer_arch_schedule+0x6>
  202668:	f003 fa15 	bl	205a96 <cpu_cpsid>
  20266c:	f7ff ffe0 	bl	202630 <rtimer_arch_now>
  202670:	1a23      	subs	r3, r4, r0
  202672:	2b06      	cmp	r3, #6
  202674:	bfd8      	it	le
  202676:	1dc4      	addle	r4, r0, #7
  202678:	4b0c      	ldr	r3, [pc, #48]	; (2026ac <rtimer_arch_schedule+0x50>)
  20267a:	0e22      	lsrs	r2, r4, #24
  20267c:	601a      	str	r2, [r3, #0]
  20267e:	f3c4 4207 	ubfx	r2, r4, #16, #8
  202682:	f843 2c04 	str.w	r2, [r3, #-4]
  202686:	f3c4 2207 	ubfx	r2, r4, #8, #8
  20268a:	f843 2c08 	str.w	r2, [r3, #-8]
  20268e:	b2e2      	uxtb	r2, r4
  202690:	f843 2c0c 	str.w	r2, [r3, #-12]
  202694:	f003 f9fb 	bl	205a8e <cpu_cpsie>
  202698:	4b05      	ldr	r3, [pc, #20]	; (2026b0 <rtimer_arch_schedule+0x54>)
  20269a:	2091      	movs	r0, #145	; 0x91
  20269c:	601c      	str	r4, [r3, #0]
  20269e:	e8bd 4010 	ldmia.w	sp!, {r4, lr}
  2026a2:	f000 b973 	b.w	20298c <nvic_interrupt_enable>
  2026a6:	bf00      	nop
  2026a8:	400d5050 	.word	0x400d5050
  2026ac:	400d504c 	.word	0x400d504c
  2026b0:	20000108 	.word	0x20000108

002026b4 <rtimer_isr>:
  2026b4:	b508      	push	{r3, lr}
  2026b6:	f000 fe4d 	bl	203354 <lpm_exit>
  2026ba:	4b06      	ldr	r3, [pc, #24]	; (2026d4 <rtimer_isr+0x20>)
  2026bc:	2200      	movs	r2, #0
  2026be:	2091      	movs	r0, #145	; 0x91
  2026c0:	601a      	str	r2, [r3, #0]
  2026c2:	f000 f97f 	bl	2029c4 <nvic_interrupt_unpend>
  2026c6:	2091      	movs	r0, #145	; 0x91
  2026c8:	f000 f96e 	bl	2029a8 <nvic_interrupt_disable>
  2026cc:	e8bd 4008 	ldmia.w	sp!, {r3, lr}
  2026d0:	f001 bd5a 	b.w	204188 <rtimer_run_next>
  2026d4:	20000108 	.word	0x20000108

002026d8 <permit_pm1>:
  2026d8:	4b09      	ldr	r3, [pc, #36]	; (202700 <permit_pm1+0x28>)
  2026da:	681a      	ldr	r2, [r3, #0]
  2026dc:	07d2      	lsls	r2, r2, #31
  2026de:	d504      	bpl.n	2026ea <permit_pm1+0x12>
  2026e0:	4a08      	ldr	r2, [pc, #32]	; (202704 <permit_pm1+0x2c>)
  2026e2:	6810      	ldr	r0, [r2, #0]
  2026e4:	f010 0080 	ands.w	r0, r0, #128	; 0x80
  2026e8:	d008      	beq.n	2026fc <permit_pm1+0x24>
  2026ea:	681b      	ldr	r3, [r3, #0]
  2026ec:	079b      	lsls	r3, r3, #30
  2026ee:	d504      	bpl.n	2026fa <permit_pm1+0x22>
  2026f0:	4b05      	ldr	r3, [pc, #20]	; (202708 <permit_pm1+0x30>)
  2026f2:	6818      	ldr	r0, [r3, #0]
  2026f4:	f3c0 10c0 	ubfx	r0, r0, #7, #1
  2026f8:	4770      	bx	lr
  2026fa:	2001      	movs	r0, #1
  2026fc:	4770      	bx	lr
  2026fe:	bf00      	nop
  202700:	400d2028 	.word	0x400d2028
  202704:	4000c018 	.word	0x4000c018
  202708:	4000d018 	.word	0x4000d018

0020270c <uart_isr>:
  20270c:	4a16      	ldr	r2, [pc, #88]	; (202768 <uart_isr+0x5c>)
  20270e:	232c      	movs	r3, #44	; 0x2c
  202710:	fb03 2300 	mla	r3, r3, r0, r2
  202714:	f64f 72bf 	movw	r2, #65471	; 0xffbf
  202718:	b570      	push	{r4, r5, r6, lr}
  20271a:	68dc      	ldr	r4, [r3, #12]
  20271c:	4605      	mov	r5, r0
  20271e:	6c23      	ldr	r3, [r4, #64]	; 0x40
  202720:	6462      	str	r2, [r4, #68]	; 0x44
  202722:	b29b      	uxth	r3, r3
  202724:	f013 0250 	ands.w	r2, r3, #80	; 0x50
  202728:	d00d      	beq.n	202746 <uart_isr+0x3a>
  20272a:	4e10      	ldr	r6, [pc, #64]	; (20276c <uart_isr+0x60>)
  20272c:	69a3      	ldr	r3, [r4, #24]
  20272e:	06db      	lsls	r3, r3, #27
  202730:	d408      	bmi.n	202744 <uart_isr+0x38>
  202732:	f856 3025 	ldr.w	r3, [r6, r5, lsl #2]
  202736:	b11b      	cbz	r3, 202740 <uart_isr+0x34>
  202738:	6820      	ldr	r0, [r4, #0]
  20273a:	b2c0      	uxtb	r0, r0
  20273c:	4798      	blx	r3
  20273e:	e7f5      	b.n	20272c <uart_isr+0x20>
  202740:	6823      	ldr	r3, [r4, #0]
  202742:	e7f3      	b.n	20272c <uart_isr+0x20>
  202744:	bd70      	pop	{r4, r5, r6, pc}
  202746:	f413 6fd0 	tst.w	r3, #1664	; 0x680
  20274a:	d00b      	beq.n	202764 <uart_isr+0x58>
  20274c:	f44f 7340 	mov.w	r3, #768	; 0x300
  202750:	6323      	str	r3, [r4, #48]	; 0x30
  202752:	23ff      	movs	r3, #255	; 0xff
  202754:	6063      	str	r3, [r4, #4]
  202756:	6ae3      	ldr	r3, [r4, #44]	; 0x2c
  202758:	62e2      	str	r2, [r4, #44]	; 0x2c
  20275a:	62e3      	str	r3, [r4, #44]	; 0x2c
  20275c:	6b23      	ldr	r3, [r4, #48]	; 0x30
  20275e:	f043 0301 	orr.w	r3, r3, #1
  202762:	6323      	str	r3, [r4, #48]	; 0x30
  202764:	bd70      	pop	{r4, r5, r6, pc}
  202766:	bf00      	nop
  202768:	0020637c 	.word	0x0020637c
  20276c:	2000010c 	.word	0x2000010c

00202770 <uart_init>:
  202770:	2801      	cmp	r0, #1
  202772:	e92d 4ff7 	stmdb	sp!, {r0, r1, r2, r4, r5, r6, r7, r8, r9, sl, fp, lr}
  202776:	4606      	mov	r6, r0
  202778:	f200 80b2 	bhi.w	2028e0 <uart_init+0x170>
  20277c:	252c      	movs	r5, #44	; 0x2c
  20277e:	4345      	muls	r5, r0
  202780:	4f59      	ldr	r7, [pc, #356]	; (2028e8 <uart_init+0x178>)
  202782:	197c      	adds	r4, r7, r5
  202784:	f994 8020 	ldrsb.w	r8, [r4, #32]
  202788:	f1b8 0f00 	cmp.w	r8, #0
  20278c:	f2c0 80a8 	blt.w	2028e0 <uart_init+0x170>
  202790:	f994 9022 	ldrsb.w	r9, [r4, #34]	; 0x22
  202794:	f1b9 0f00 	cmp.w	r9, #0
  202798:	f2c0 80a2 	blt.w	2028e0 <uart_init+0x170>
  20279c:	4853      	ldr	r0, [pc, #332]	; (2028ec <uart_init+0x17c>)
  20279e:	f000 fe4f 	bl	203440 <lpm_register_peripheral>
  2027a2:	4a53      	ldr	r2, [pc, #332]	; (2028f0 <uart_init+0x180>)
  2027a4:	597b      	ldr	r3, [r7, r5]
  2027a6:	6811      	ldr	r1, [r2, #0]
  2027a8:	68e5      	ldr	r5, [r4, #12]
  2027aa:	430b      	orrs	r3, r1
  2027ac:	6013      	str	r3, [r2, #0]
  2027ae:	6851      	ldr	r1, [r2, #4]
  2027b0:	6863      	ldr	r3, [r4, #4]
  2027b2:	f994 a021 	ldrsb.w	sl, [r4, #33]	; 0x21
  2027b6:	430b      	orrs	r3, r1
  2027b8:	6053      	str	r3, [r2, #4]
  2027ba:	6891      	ldr	r1, [r2, #8]
  2027bc:	68a3      	ldr	r3, [r4, #8]
  2027be:	fa5f fb89 	uxtb.w	fp, r9
  2027c2:	430b      	orrs	r3, r1
  2027c4:	6093      	str	r3, [r2, #8]
  2027c6:	2300      	movs	r3, #0
  2027c8:	f8c5 3fc8 	str.w	r3, [r5, #4040]	; 0xfc8
  2027cc:	6923      	ldr	r3, [r4, #16]
  2027ce:	eb0a 02c8 	add.w	r2, sl, r8, lsl #3
  2027d2:	601a      	str	r2, [r3, #0]
  2027d4:	f994 3023 	ldrsb.w	r3, [r4, #35]	; 0x23
  2027d8:	7d22      	ldrb	r2, [r4, #20]
  2027da:	9300      	str	r3, [sp, #0]
  2027dc:	f89d 3000 	ldrb.w	r3, [sp]
  2027e0:	4658      	mov	r0, fp
  2027e2:	4619      	mov	r1, r3
  2027e4:	9301      	str	r3, [sp, #4]
  2027e6:	f000 f977 	bl	202ad8 <ioc_set_sel>
  2027ea:	9b01      	ldr	r3, [sp, #4]
  2027ec:	2208      	movs	r2, #8
  2027ee:	4619      	mov	r1, r3
  2027f0:	4658      	mov	r0, fp
  2027f2:	f000 f967 	bl	202ac4 <ioc_set_over>
  2027f6:	4a3f      	ldr	r2, [pc, #252]	; (2028f4 <uart_init+0x184>)
  2027f8:	ea4f 3909 	mov.w	r9, r9, lsl #12
  2027fc:	9900      	ldr	r1, [sp, #0]
  2027fe:	f859 0002 	ldr.w	r0, [r9, r2]
  202802:	2301      	movs	r3, #1
  202804:	fa03 f101 	lsl.w	r1, r3, r1
  202808:	4301      	orrs	r1, r0
  20280a:	f849 1002 	str.w	r1, [r9, r2]
  20280e:	ea4f 3808 	mov.w	r8, r8, lsl #12
  202812:	f858 0002 	ldr.w	r0, [r8, r2]
  202816:	fa03 f10a 	lsl.w	r1, r3, sl
  20281a:	4301      	orrs	r1, r0
  20281c:	f848 1002 	str.w	r1, [r8, r2]
  202820:	2150      	movs	r1, #80	; 0x50
  202822:	63a9      	str	r1, [r5, #56]	; 0x38
  202824:	6ba9      	ldr	r1, [r5, #56]	; 0x38
  202826:	f994 0024 	ldrsb.w	r0, [r4, #36]	; 0x24
  20282a:	f441 61d0 	orr.w	r1, r1, #1664	; 0x680
  20282e:	63a9      	str	r1, [r5, #56]	; 0x38
  202830:	2102      	movs	r1, #2
  202832:	6369      	str	r1, [r5, #52]	; 0x34
  202834:	f44f 7140 	mov.w	r1, #768	; 0x300
  202838:	6329      	str	r1, [r5, #48]	; 0x30
  20283a:	69a1      	ldr	r1, [r4, #24]
  20283c:	2800      	cmp	r0, #0
  20283e:	6269      	str	r1, [r5, #36]	; 0x24
  202840:	69e1      	ldr	r1, [r4, #28]
  202842:	62a9      	str	r1, [r5, #40]	; 0x28
  202844:	f04f 0170 	mov.w	r1, #112	; 0x70
  202848:	62e9      	str	r1, [r5, #44]	; 0x2c
  20284a:	4615      	mov	r5, r2
  20284c:	db16      	blt.n	20287c <uart_init+0x10c>
  20284e:	f994 1025 	ldrsb.w	r1, [r4, #37]	; 0x25
  202852:	f5a2 42a6 	sub.w	r2, r2, #21248	; 0x5300
  202856:	ea41 04c0 	orr.w	r4, r1, r0, lsl #3
  20285a:	3a1c      	subs	r2, #28
  20285c:	6014      	str	r4, [r2, #0]
  20285e:	0304      	lsls	r4, r0, #12
  202860:	5962      	ldr	r2, [r4, r5]
  202862:	408b      	lsls	r3, r1
  202864:	4313      	orrs	r3, r2
  202866:	5163      	str	r3, [r4, r5]
  202868:	2200      	movs	r2, #0
  20286a:	b2c9      	uxtb	r1, r1
  20286c:	b2c0      	uxtb	r0, r0
  20286e:	f000 f929 	bl	202ac4 <ioc_set_over>
  202872:	4a21      	ldr	r2, [pc, #132]	; (2028f8 <uart_init+0x188>)
  202874:	6813      	ldr	r3, [r2, #0]
  202876:	f443 4300 	orr.w	r3, r3, #32768	; 0x8000
  20287a:	6013      	str	r3, [r2, #0]
  20287c:	232c      	movs	r3, #44	; 0x2c
  20287e:	fb03 7306 	mla	r3, r3, r6, r7
  202882:	f993 4026 	ldrsb.w	r4, [r3, #38]	; 0x26
  202886:	2c00      	cmp	r4, #0
  202888:	db1b      	blt.n	2028c2 <uart_init+0x152>
  20288a:	f993 a027 	ldrsb.w	sl, [r3, #39]	; 0x27
  20288e:	fa5f f884 	uxtb.w	r8, r4
  202892:	fa5f f98a 	uxtb.w	r9, sl
  202896:	2201      	movs	r2, #1
  202898:	4649      	mov	r1, r9
  20289a:	4640      	mov	r0, r8
  20289c:	0324      	lsls	r4, r4, #12
  20289e:	f000 f91b 	bl	202ad8 <ioc_set_sel>
  2028a2:	5962      	ldr	r2, [r4, r5]
  2028a4:	2301      	movs	r3, #1
  2028a6:	fa03 f30a 	lsl.w	r3, r3, sl
  2028aa:	4313      	orrs	r3, r2
  2028ac:	5163      	str	r3, [r4, r5]
  2028ae:	2208      	movs	r2, #8
  2028b0:	4649      	mov	r1, r9
  2028b2:	4640      	mov	r0, r8
  2028b4:	f000 f906 	bl	202ac4 <ioc_set_over>
  2028b8:	4a0f      	ldr	r2, [pc, #60]	; (2028f8 <uart_init+0x188>)
  2028ba:	6813      	ldr	r3, [r2, #0]
  2028bc:	f443 4380 	orr.w	r3, r3, #16384	; 0x4000
  2028c0:	6013      	str	r3, [r2, #0]
  2028c2:	232c      	movs	r3, #44	; 0x2c
  2028c4:	fb03 7606 	mla	r6, r3, r6, r7
  2028c8:	68f2      	ldr	r2, [r6, #12]
  2028ca:	f896 0028 	ldrb.w	r0, [r6, #40]	; 0x28
  2028ce:	6b13      	ldr	r3, [r2, #48]	; 0x30
  2028d0:	f043 0301 	orr.w	r3, r3, #1
  2028d4:	6313      	str	r3, [r2, #48]	; 0x30
  2028d6:	b003      	add	sp, #12
  2028d8:	e8bd 4ff0 	ldmia.w	sp!, {r4, r5, r6, r7, r8, r9, sl, fp, lr}
  2028dc:	f000 b856 	b.w	20298c <nvic_interrupt_enable>
  2028e0:	b003      	add	sp, #12
  2028e2:	e8bd 8ff0 	ldmia.w	sp!, {r4, r5, r6, r7, r8, r9, sl, fp, pc}
  2028e6:	bf00      	nop
  2028e8:	0020637c 	.word	0x0020637c
  2028ec:	002026d9 	.word	0x002026d9
  2028f0:	400d2028 	.word	0x400d2028
  2028f4:	400d9420 	.word	0x400d9420
  2028f8:	4000d030 	.word	0x4000d030

002028fc <uart_set_input>:
  2028fc:	2801      	cmp	r0, #1
  2028fe:	bf9c      	itt	ls
  202900:	4b01      	ldrls	r3, [pc, #4]	; (202908 <uart_set_input+0xc>)
  202902:	f843 1020 	strls.w	r1, [r3, r0, lsl #2]
  202906:	4770      	bx	lr
  202908:	2000010c 	.word	0x2000010c

0020290c <uart_write_byte>:
  20290c:	2801      	cmp	r0, #1
  20290e:	d808      	bhi.n	202922 <uart_write_byte+0x16>
  202910:	4b04      	ldr	r3, [pc, #16]	; (202924 <uart_write_byte+0x18>)
  202912:	222c      	movs	r2, #44	; 0x2c
  202914:	fb02 3000 	mla	r0, r2, r0, r3
  202918:	68c3      	ldr	r3, [r0, #12]
  20291a:	699a      	ldr	r2, [r3, #24]
  20291c:	0692      	lsls	r2, r2, #26
  20291e:	d4fc      	bmi.n	20291a <uart_write_byte+0xe>
  202920:	6019      	str	r1, [r3, #0]
  202922:	4770      	bx	lr
  202924:	0020637c 	.word	0x0020637c

00202928 <watchdog_init>:
  202928:	4b01      	ldr	r3, [pc, #4]	; (202930 <watchdog_init+0x8>)
  20292a:	2200      	movs	r2, #0
  20292c:	601a      	str	r2, [r3, #0]
  20292e:	4770      	bx	lr
  202930:	400d5000 	.word	0x400d5000

00202934 <watchdog_start>:
  202934:	4b01      	ldr	r3, [pc, #4]	; (20293c <watchdog_start+0x8>)
  202936:	2208      	movs	r2, #8
  202938:	601a      	str	r2, [r3, #0]
  20293a:	4770      	bx	lr
  20293c:	400d5000 	.word	0x400d5000

00202940 <watchdog_periodic>:
  202940:	4b02      	ldr	r3, [pc, #8]	; (20294c <watchdog_periodic+0xc>)
  202942:	22a0      	movs	r2, #160	; 0xa0
  202944:	601a      	str	r2, [r3, #0]
  202946:	2250      	movs	r2, #80	; 0x50
  202948:	601a      	str	r2, [r3, #0]
  20294a:	4770      	bx	lr
  20294c:	400d5000 	.word	0x400d5000

00202950 <nvic_init>:
  202950:	4a07      	ldr	r2, [pc, #28]	; (202970 <nvic_init+0x20>)
  202952:	4b08      	ldr	r3, [pc, #32]	; (202974 <nvic_init+0x24>)
  202954:	601a      	str	r2, [r3, #0]
  202956:	4b08      	ldr	r3, [pc, #32]	; (202978 <nvic_init+0x28>)
  202958:	3280      	adds	r2, #128	; 0x80
  20295a:	601a      	str	r2, [r3, #0]
  20295c:	4b07      	ldr	r3, [pc, #28]	; (20297c <nvic_init+0x2c>)
  20295e:	3280      	adds	r2, #128	; 0x80
  202960:	601a      	str	r2, [r3, #0]
  202962:	4b07      	ldr	r3, [pc, #28]	; (202980 <nvic_init+0x30>)
  202964:	3280      	adds	r2, #128	; 0x80
  202966:	601a      	str	r2, [r3, #0]
  202968:	4b06      	ldr	r3, [pc, #24]	; (202984 <nvic_init+0x34>)
  20296a:	4a07      	ldr	r2, [pc, #28]	; (202988 <nvic_init+0x38>)
  20296c:	601a      	str	r2, [r3, #0]
  20296e:	4770      	bx	lr
  202970:	e000e100 	.word	0xe000e100
  202974:	20000120 	.word	0x20000120
  202978:	20000114 	.word	0x20000114
  20297c:	20000118 	.word	0x20000118
  202980:	2000011c 	.word	0x2000011c
  202984:	e000ed08 	.word	0xe000ed08
  202988:	00202000 	.word	0x00202000

0020298c <nvic_interrupt_enable>:
  20298c:	4b05      	ldr	r3, [pc, #20]	; (2029a4 <nvic_interrupt_enable+0x18>)
  20298e:	0941      	lsrs	r1, r0, #5
  202990:	681a      	ldr	r2, [r3, #0]
  202992:	f000 001f 	and.w	r0, r0, #31
  202996:	2301      	movs	r3, #1
  202998:	fa03 f000 	lsl.w	r0, r3, r0
  20299c:	f842 0021 	str.w	r0, [r2, r1, lsl #2]
  2029a0:	4770      	bx	lr
  2029a2:	bf00      	nop
  2029a4:	20000120 	.word	0x20000120

002029a8 <nvic_interrupt_disable>:
  2029a8:	4b05      	ldr	r3, [pc, #20]	; (2029c0 <nvic_interrupt_disable+0x18>)
  2029aa:	0941      	lsrs	r1, r0, #5
  2029ac:	681a      	ldr	r2, [r3, #0]
  2029ae:	f000 001f 	and.w	r0, r0, #31
  2029b2:	2301      	movs	r3, #1
  2029b4:	fa03 f000 	lsl.w	r0, r3, r0
  2029b8:	f842 0021 	str.w	r0, [r2, r1, lsl #2]
  2029bc:	4770      	bx	lr
  2029be:	bf00      	nop
  2029c0:	20000114 	.word	0x20000114

002029c4 <nvic_interrupt_unpend>:
  2029c4:	4b05      	ldr	r3, [pc, #20]	; (2029dc <nvic_interrupt_unpend+0x18>)
  2029c6:	0941      	lsrs	r1, r0, #5
  2029c8:	681a      	ldr	r2, [r3, #0]
  2029ca:	f000 001f 	and.w	r0, r0, #31
  2029ce:	2301      	movs	r3, #1
  2029d0:	fa03 f000 	lsl.w	r0, r3, r0
  2029d4:	f842 0021 	str.w	r0, [r2, r1, lsl #2]
  2029d8:	4770      	bx	lr
  2029da:	bf00      	nop
  2029dc:	2000011c 	.word	0x2000011c

002029e0 <sys_ctrl_init>:
  2029e0:	4a05      	ldr	r2, [pc, #20]	; (2029f8 <sys_ctrl_init+0x18>)
  2029e2:	4b06      	ldr	r3, [pc, #24]	; (2029fc <sys_ctrl_init+0x1c>)
  2029e4:	4906      	ldr	r1, [pc, #24]	; (202a00 <sys_ctrl_init+0x20>)
  2029e6:	601a      	str	r2, [r3, #0]
  2029e8:	680a      	ldr	r2, [r1, #0]
  2029ea:	4b06      	ldr	r3, [pc, #24]	; (202a04 <sys_ctrl_init+0x24>)
  2029ec:	4013      	ands	r3, r2
  2029ee:	f1b3 7f80 	cmp.w	r3, #16777216	; 0x1000000
  2029f2:	d1f9      	bne.n	2029e8 <sys_ctrl_init+0x8>
  2029f4:	4770      	bx	lr
  2029f6:	bf00      	nop
  2029f8:	01020101 	.word	0x01020101
  2029fc:	400d2000 	.word	0x400d2000
  202a00:	400d2004 	.word	0x400d2004
  202a04:	01010000 	.word	0x01010000

00202a08 <gpio_register_callback>:
  202a08:	4b02      	ldr	r3, [pc, #8]	; (202a14 <gpio_register_callback+0xc>)
  202a0a:	eb02 02c1 	add.w	r2, r2, r1, lsl #3
  202a0e:	f843 0022 	str.w	r0, [r3, r2, lsl #2]
  202a12:	4770      	bx	lr
  202a14:	20000124 	.word	0x20000124

00202a18 <notify>:
  202a18:	b5f8      	push	{r3, r4, r5, r6, r7, lr}
  202a1a:	4607      	mov	r7, r0
  202a1c:	460e      	mov	r6, r1
  202a1e:	4d09      	ldr	r5, [pc, #36]	; (202a44 <notify+0x2c>)
  202a20:	2400      	movs	r4, #0
  202a22:	eb05 1541 	add.w	r5, r5, r1, lsl #5
  202a26:	fa47 f304 	asr.w	r3, r7, r4
  202a2a:	07db      	lsls	r3, r3, #31
  202a2c:	b2e1      	uxtb	r1, r4
  202a2e:	d504      	bpl.n	202a3a <notify+0x22>
  202a30:	f855 3024 	ldr.w	r3, [r5, r4, lsl #2]
  202a34:	b10b      	cbz	r3, 202a3a <notify+0x22>
  202a36:	4630      	mov	r0, r6
  202a38:	4798      	blx	r3
  202a3a:	3401      	adds	r4, #1
  202a3c:	2c08      	cmp	r4, #8
  202a3e:	d1f2      	bne.n	202a26 <notify+0xe>
  202a40:	bdf8      	pop	{r3, r4, r5, r6, r7, pc}
  202a42:	bf00      	nop
  202a44:	20000124 	.word	0x20000124

00202a48 <gpio_port_isr>:
  202a48:	e92d 47f0 	stmdb	sp!, {r4, r5, r6, r7, r8, r9, sl, lr}
  202a4c:	4680      	mov	r8, r0
  202a4e:	ea4f 3708 	mov.w	r7, r8, lsl #12
  202a52:	f8df 9040 	ldr.w	r9, [pc, #64]	; 202a94 <gpio_port_isr+0x4c>
  202a56:	f107 4580 	add.w	r5, r7, #1073741824	; 0x40000000
  202a5a:	f505 2559 	add.w	r5, r5, #888832	; 0xd9000
  202a5e:	f000 fc79 	bl	203354 <lpm_exit>
  202a62:	f8d5 6418 	ldr.w	r6, [r5, #1048]	; 0x418
  202a66:	f857 3009 	ldr.w	r3, [r7, r9]
  202a6a:	ea4f 0ac8 	mov.w	sl, r8, lsl #3
  202a6e:	fa23 f40a 	lsr.w	r4, r3, sl
  202a72:	ea46 0004 	orr.w	r0, r6, r4
  202a76:	b2e4      	uxtb	r4, r4
  202a78:	4641      	mov	r1, r8
  202a7a:	b2c0      	uxtb	r0, r0
  202a7c:	b2f6      	uxtb	r6, r6
  202a7e:	fa04 f40a 	lsl.w	r4, r4, sl
  202a82:	f7ff ffc9 	bl	202a18 <notify>
  202a86:	f8c5 641c 	str.w	r6, [r5, #1052]	; 0x41c
  202a8a:	f847 4009 	str.w	r4, [r7, r9]
  202a8e:	e8bd 87f0 	ldmia.w	sp!, {r4, r5, r6, r7, r8, r9, sl, pc}
  202a92:	bf00      	nop
  202a94:	400d9718 	.word	0x400d9718

00202a98 <gpio_init>:
  202a98:	2280      	movs	r2, #128	; 0x80
  202a9a:	2100      	movs	r1, #0
  202a9c:	4801      	ldr	r0, [pc, #4]	; (202aa4 <gpio_init+0xc>)
  202a9e:	f002 bf6d 	b.w	20597c <memset>
  202aa2:	bf00      	nop
  202aa4:	20000124 	.word	0x20000124

00202aa8 <ioc_init>:
  202aa8:	4a03      	ldr	r2, [pc, #12]	; (202ab8 <ioc_init+0x10>)
  202aaa:	4b04      	ldr	r3, [pc, #16]	; (202abc <ioc_init+0x14>)
  202aac:	601a      	str	r2, [r3, #0]
  202aae:	4b04      	ldr	r3, [pc, #16]	; (202ac0 <ioc_init+0x18>)
  202ab0:	3a80      	subs	r2, #128	; 0x80
  202ab2:	601a      	str	r2, [r3, #0]
  202ab4:	4770      	bx	lr
  202ab6:	bf00      	nop
  202ab8:	400d4080 	.word	0x400d4080
  202abc:	200001a8 	.word	0x200001a8
  202ac0:	200001a4 	.word	0x200001a4

00202ac4 <ioc_set_over>:
  202ac4:	4b03      	ldr	r3, [pc, #12]	; (202ad4 <ioc_set_over+0x10>)
  202ac6:	eb01 01c0 	add.w	r1, r1, r0, lsl #3
  202aca:	681b      	ldr	r3, [r3, #0]
  202acc:	f843 2021 	str.w	r2, [r3, r1, lsl #2]
  202ad0:	4770      	bx	lr
  202ad2:	bf00      	nop
  202ad4:	200001a8 	.word	0x200001a8

00202ad8 <ioc_set_sel>:
  202ad8:	4b03      	ldr	r3, [pc, #12]	; (202ae8 <ioc_set_sel+0x10>)
  202ada:	eb01 01c0 	add.w	r1, r1, r0, lsl #3
  202ade:	681b      	ldr	r3, [r3, #0]
  202ae0:	f843 2021 	str.w	r2, [r3, r1, lsl #2]
  202ae4:	4770      	bx	lr
  202ae6:	bf00      	nop
  202ae8:	200001a4 	.word	0x200001a4

00202aec <permit_pm1>:
  202aec:	4b02      	ldr	r3, [pc, #8]	; (202af8 <permit_pm1+0xc>)
  202aee:	6818      	ldr	r0, [r3, #0]
  202af0:	fab0 f080 	clz	r0, r0
  202af4:	0940      	lsrs	r0, r0, #5
  202af6:	4770      	bx	lr
  202af8:	4008b700 	.word	0x4008b700

00202afc <crypto_isr>:
  202afc:	b510      	push	{r4, lr}
  202afe:	208f      	movs	r0, #143	; 0x8f
  202b00:	4c06      	ldr	r4, [pc, #24]	; (202b1c <crypto_isr+0x20>)
  202b02:	f7ff ff5f 	bl	2029c4 <nvic_interrupt_unpend>
  202b06:	208f      	movs	r0, #143	; 0x8f
  202b08:	f7ff ff4e 	bl	2029a8 <nvic_interrupt_disable>
  202b0c:	6820      	ldr	r0, [r4, #0]
  202b0e:	b118      	cbz	r0, 202b18 <crypto_isr+0x1c>
  202b10:	f001 fb1c 	bl	20414c <process_poll>
  202b14:	2300      	movs	r3, #0
  202b16:	6023      	str	r3, [r4, #0]
  202b18:	bd10      	pop	{r4, pc}
  202b1a:	bf00      	nop
  202b1c:	200001ac 	.word	0x200001ac

00202b20 <crypto_enable>:
  202b20:	4a06      	ldr	r2, [pc, #24]	; (202b3c <crypto_enable+0x1c>)
  202b22:	6813      	ldr	r3, [r2, #0]
  202b24:	f043 0302 	orr.w	r3, r3, #2
  202b28:	6013      	str	r3, [r2, #0]
  202b2a:	6853      	ldr	r3, [r2, #4]
  202b2c:	f043 0302 	orr.w	r3, r3, #2
  202b30:	6053      	str	r3, [r2, #4]
  202b32:	6893      	ldr	r3, [r2, #8]
  202b34:	f043 0302 	orr.w	r3, r3, #2
  202b38:	6093      	str	r3, [r2, #8]
  202b3a:	4770      	bx	lr
  202b3c:	400d2048 	.word	0x400d2048

00202b40 <crypto_init>:
  202b40:	b507      	push	{r0, r1, r2, lr}
  202b42:	480c      	ldr	r0, [pc, #48]	; (202b74 <crypto_init+0x34>)
  202b44:	f000 fc7c 	bl	203440 <lpm_register_peripheral>
  202b48:	f7ff ffea 	bl	202b20 <crypto_enable>
  202b4c:	4b0a      	ldr	r3, [pc, #40]	; (202b78 <crypto_init+0x38>)
  202b4e:	681a      	ldr	r2, [r3, #0]
  202b50:	f042 0202 	orr.w	r2, r2, #2
  202b54:	601a      	str	r2, [r3, #0]
  202b56:	2200      	movs	r2, #0
  202b58:	9201      	str	r2, [sp, #4]
  202b5a:	9a01      	ldr	r2, [sp, #4]
  202b5c:	2a0f      	cmp	r2, #15
  202b5e:	dc02      	bgt.n	202b66 <crypto_init+0x26>
  202b60:	9a01      	ldr	r2, [sp, #4]
  202b62:	3201      	adds	r2, #1
  202b64:	e7f8      	b.n	202b58 <crypto_init+0x18>
  202b66:	681a      	ldr	r2, [r3, #0]
  202b68:	f022 0202 	bic.w	r2, r2, #2
  202b6c:	601a      	str	r2, [r3, #0]
  202b6e:	b003      	add	sp, #12
  202b70:	f85d fb04 	ldr.w	pc, [sp], #4
  202b74:	00202aed 	.word	0x00202aed
  202b78:	400d2054 	.word	0x400d2054

00202b7c <crypto_disable>:
  202b7c:	4a06      	ldr	r2, [pc, #24]	; (202b98 <crypto_disable+0x1c>)
  202b7e:	6813      	ldr	r3, [r2, #0]
  202b80:	f023 0302 	bic.w	r3, r3, #2
  202b84:	6013      	str	r3, [r2, #0]
  202b86:	6853      	ldr	r3, [r2, #4]
  202b88:	f023 0302 	bic.w	r3, r3, #2
  202b8c:	6053      	str	r3, [r2, #4]
  202b8e:	6893      	ldr	r3, [r2, #8]
  202b90:	f023 0302 	bic.w	r3, r3, #2
  202b94:	6093      	str	r3, [r2, #8]
  202b96:	4770      	bx	lr
  202b98:	400d2048 	.word	0x400d2048

00202b9c <on>:
  202b9c:	4b08      	ldr	r3, [pc, #32]	; (202bc0 <on+0x24>)
  202b9e:	f993 2000 	ldrsb.w	r2, [r3]
  202ba2:	2a00      	cmp	r2, #0
  202ba4:	db09      	blt.n	202bba <on+0x1e>
  202ba6:	4a07      	ldr	r2, [pc, #28]	; (202bc4 <on+0x28>)
  202ba8:	21ed      	movs	r1, #237	; 0xed
  202baa:	6011      	str	r1, [r2, #0]
  202bac:	6011      	str	r1, [r2, #0]
  202bae:	21e3      	movs	r1, #227	; 0xe3
  202bb0:	6011      	str	r1, [r2, #0]
  202bb2:	781a      	ldrb	r2, [r3, #0]
  202bb4:	f062 027f 	orn	r2, r2, #127	; 0x7f
  202bb8:	701a      	strb	r2, [r3, #0]
  202bba:	2001      	movs	r0, #1
  202bbc:	4770      	bx	lr
  202bbe:	bf00      	nop
  202bc0:	20000c64 	.word	0x20000c64
  202bc4:	40088838 	.word	0x40088838

00202bc8 <off>:
  202bc8:	4a09      	ldr	r2, [pc, #36]	; (202bf0 <off+0x28>)
  202bca:	6813      	ldr	r3, [r2, #0]
  202bcc:	079b      	lsls	r3, r3, #30
  202bce:	d4fc      	bmi.n	202bca <off+0x2>
  202bd0:	4b08      	ldr	r3, [pc, #32]	; (202bf4 <off+0x2c>)
  202bd2:	22ed      	movs	r2, #237	; 0xed
  202bd4:	601a      	str	r2, [r3, #0]
  202bd6:	601a      	str	r2, [r3, #0]
  202bd8:	4a07      	ldr	r2, [pc, #28]	; (202bf8 <off+0x30>)
  202bda:	6812      	ldr	r2, [r2, #0]
  202bdc:	b10a      	cbz	r2, 202be2 <off+0x1a>
  202bde:	22ef      	movs	r2, #239	; 0xef
  202be0:	601a      	str	r2, [r3, #0]
  202be2:	4a06      	ldr	r2, [pc, #24]	; (202bfc <off+0x34>)
  202be4:	2001      	movs	r0, #1
  202be6:	7813      	ldrb	r3, [r2, #0]
  202be8:	f003 037f 	and.w	r3, r3, #127	; 0x7f
  202bec:	7013      	strb	r3, [r2, #0]
  202bee:	4770      	bx	lr
  202bf0:	4008864c 	.word	0x4008864c
  202bf4:	40088838 	.word	0x40088838
  202bf8:	4008862c 	.word	0x4008862c
  202bfc:	20000c64 	.word	0x20000c64

00202c00 <set_channel>:
  202c00:	f1a0 010b 	sub.w	r1, r0, #11
  202c04:	b2cb      	uxtb	r3, r1
  202c06:	2b0f      	cmp	r3, #15
  202c08:	b510      	push	{r4, lr}
  202c0a:	4604      	mov	r4, r0
  202c0c:	d813      	bhi.n	202c36 <set_channel+0x36>
  202c0e:	4b0b      	ldr	r3, [pc, #44]	; (202c3c <set_channel+0x3c>)
  202c10:	681b      	ldr	r3, [r3, #0]
  202c12:	f013 033f 	ands.w	r3, r3, #63	; 0x3f
  202c16:	d002      	beq.n	202c1e <set_channel+0x1e>
  202c18:	f7ff ffd6 	bl	202bc8 <off>
  202c1c:	2301      	movs	r3, #1
  202c1e:	eb01 0181 	add.w	r1, r1, r1, lsl #2
  202c22:	4a07      	ldr	r2, [pc, #28]	; (202c40 <set_channel+0x40>)
  202c24:	310b      	adds	r1, #11
  202c26:	6011      	str	r1, [r2, #0]
  202c28:	b10b      	cbz	r3, 202c2e <set_channel+0x2e>
  202c2a:	f7ff ffb7 	bl	202b9c <on>
  202c2e:	4b05      	ldr	r3, [pc, #20]	; (202c44 <set_channel+0x44>)
  202c30:	b260      	sxtb	r0, r4
  202c32:	701c      	strb	r4, [r3, #0]
  202c34:	bd10      	pop	{r4, pc}
  202c36:	f04f 30ff 	mov.w	r0, #4294967295	; 0xffffffff
  202c3a:	bd10      	pop	{r4, pc}
  202c3c:	40088648 	.word	0x40088648
  202c40:	4008863c 	.word	0x4008863c
  202c44:	200000ee 	.word	0x200000ee

00202c48 <channel_clear>:
  202c48:	b508      	push	{r3, lr}
  202c4a:	4b0b      	ldr	r3, [pc, #44]	; (202c78 <channel_clear+0x30>)
  202c4c:	681b      	ldr	r3, [r3, #0]
  202c4e:	0699      	lsls	r1, r3, #26
  202c50:	d103      	bne.n	202c5a <channel_clear+0x12>
  202c52:	f7ff ffa3 	bl	202b9c <on>
  202c56:	2301      	movs	r3, #1
  202c58:	e000      	b.n	202c5c <channel_clear+0x14>
  202c5a:	2300      	movs	r3, #0
  202c5c:	4907      	ldr	r1, [pc, #28]	; (202c7c <channel_clear+0x34>)
  202c5e:	680a      	ldr	r2, [r1, #0]
  202c60:	07d2      	lsls	r2, r2, #31
  202c62:	d5fc      	bpl.n	202c5e <channel_clear+0x16>
  202c64:	4a06      	ldr	r2, [pc, #24]	; (202c80 <channel_clear+0x38>)
  202c66:	6811      	ldr	r1, [r2, #0]
  202c68:	f3c1 1100 	ubfx	r1, r1, #4, #1
  202c6c:	b10b      	cbz	r3, 202c72 <channel_clear+0x2a>
  202c6e:	f7ff ffab 	bl	202bc8 <off>
  202c72:	4608      	mov	r0, r1
  202c74:	bd08      	pop	{r3, pc}
  202c76:	bf00      	nop
  202c78:	40088648 	.word	0x40088648
  202c7c:	40088664 	.word	0x40088664
  202c80:	4008864c 	.word	0x4008864c

00202c84 <receiving_packet>:
  202c84:	4b04      	ldr	r3, [pc, #16]	; (202c98 <receiving_packet+0x14>)
  202c86:	6818      	ldr	r0, [r3, #0]
  202c88:	f000 0022 	and.w	r0, r0, #34	; 0x22
  202c8c:	f1a0 0320 	sub.w	r3, r0, #32
  202c90:	4258      	negs	r0, r3
  202c92:	4158      	adcs	r0, r3
  202c94:	4770      	bx	lr
  202c96:	bf00      	nop
  202c98:	4008864c 	.word	0x4008864c

00202c9c <pending_packet>:
  202c9c:	4b02      	ldr	r3, [pc, #8]	; (202ca8 <pending_packet+0xc>)
  202c9e:	6818      	ldr	r0, [r3, #0]
  202ca0:	f000 0040 	and.w	r0, r0, #64	; 0x40
  202ca4:	4770      	bx	lr
  202ca6:	bf00      	nop
  202ca8:	4008864c 	.word	0x4008864c

00202cac <get_value>:
  202cac:	b510      	push	{r4, lr}
  202cae:	460c      	mov	r4, r1
  202cb0:	2900      	cmp	r1, #0
  202cb2:	d06e      	beq.n	202d92 <get_value+0xe6>
  202cb4:	2810      	cmp	r0, #16
  202cb6:	d86e      	bhi.n	202d96 <get_value+0xea>
  202cb8:	e8df f000 	tbb	[pc, r0]
  202cbc:	1c1a0f09 	.word	0x1c1a0f09
  202cc0:	45336d23 	.word	0x45336d23
  202cc4:	6d6d6d4a 	.word	0x6d6d6d4a
  202cc8:	6462606d 	.word	0x6462606d
  202ccc:	69          	.byte	0x69
  202ccd:	00          	.byte	0x00
  202cce:	4b33      	ldr	r3, [pc, #204]	; (202d9c <get_value+0xf0>)
  202cd0:	681b      	ldr	r3, [r3, #0]
  202cd2:	3300      	adds	r3, #0
  202cd4:	bf18      	it	ne
  202cd6:	2301      	movne	r3, #1
  202cd8:	e056      	b.n	202d88 <get_value+0xdc>
  202cda:	4b31      	ldr	r3, [pc, #196]	; (202da0 <get_value+0xf4>)
  202cdc:	2205      	movs	r2, #5
  202cde:	681b      	ldr	r3, [r3, #0]
  202ce0:	f003 037f 	and.w	r3, r3, #127	; 0x7f
  202ce4:	3b0b      	subs	r3, #11
  202ce6:	fb93 f3f2 	sdiv	r3, r3, r2
  202cea:	330b      	adds	r3, #11
  202cec:	b2db      	uxtb	r3, r3
  202cee:	e04b      	b.n	202d88 <get_value+0xdc>
  202cf0:	4b2c      	ldr	r3, [pc, #176]	; (202da4 <get_value+0xf8>)
  202cf2:	e000      	b.n	202cf6 <get_value+0x4a>
  202cf4:	4b2c      	ldr	r3, [pc, #176]	; (202da8 <get_value+0xfc>)
  202cf6:	681a      	ldr	r2, [r3, #0]
  202cf8:	3b04      	subs	r3, #4
  202cfa:	681b      	ldr	r3, [r3, #0]
  202cfc:	ea43 2302 	orr.w	r3, r3, r2, lsl #8
  202d00:	e042      	b.n	202d88 <get_value+0xdc>
  202d02:	4b2a      	ldr	r3, [pc, #168]	; (202dac <get_value+0x100>)
  202d04:	2000      	movs	r0, #0
  202d06:	6008      	str	r0, [r1, #0]
  202d08:	681a      	ldr	r2, [r3, #0]
  202d0a:	3324      	adds	r3, #36	; 0x24
  202d0c:	f002 0201 	and.w	r2, r2, #1
  202d10:	600a      	str	r2, [r1, #0]
  202d12:	681b      	ldr	r3, [r3, #0]
  202d14:	f013 0320 	ands.w	r3, r3, #32
  202d18:	d037      	beq.n	202d8a <get_value+0xde>
  202d1a:	f042 0202 	orr.w	r2, r2, #2
  202d1e:	600a      	str	r2, [r1, #0]
  202d20:	bd10      	pop	{r4, pc}
  202d22:	4b23      	ldr	r3, [pc, #140]	; (202db0 <get_value+0x104>)
  202d24:	4923      	ldr	r1, [pc, #140]	; (202db4 <get_value+0x108>)
  202d26:	681a      	ldr	r2, [r3, #0]
  202d28:	2300      	movs	r3, #0
  202d2a:	b2d2      	uxtb	r2, r2
  202d2c:	eb01 00c3 	add.w	r0, r1, r3, lsl #3
  202d30:	7900      	ldrb	r0, [r0, #4]
  202d32:	4290      	cmp	r0, r2
  202d34:	d803      	bhi.n	202d3e <get_value+0x92>
  202d36:	4a1f      	ldr	r2, [pc, #124]	; (202db4 <get_value+0x108>)
  202d38:	f852 3033 	ldr.w	r3, [r2, r3, lsl #3]
  202d3c:	e024      	b.n	202d88 <get_value+0xdc>
  202d3e:	3301      	adds	r3, #1
  202d40:	2b0e      	cmp	r3, #14
  202d42:	d1f3      	bne.n	202d2c <get_value+0x80>
  202d44:	e01e      	b.n	202d84 <get_value+0xd8>
  202d46:	4b1c      	ldr	r3, [pc, #112]	; (202db8 <get_value+0x10c>)
  202d48:	681b      	ldr	r3, [r3, #0]
  202d4a:	b25b      	sxtb	r3, r3
  202d4c:	3b49      	subs	r3, #73	; 0x49
  202d4e:	e01b      	b.n	202d88 <get_value+0xdc>
  202d50:	4b1a      	ldr	r3, [pc, #104]	; (202dbc <get_value+0x110>)
  202d52:	681b      	ldr	r3, [r3, #0]
  202d54:	0699      	lsls	r1, r3, #26
  202d56:	d103      	bne.n	202d60 <get_value+0xb4>
  202d58:	f7ff ff20 	bl	202b9c <on>
  202d5c:	2301      	movs	r3, #1
  202d5e:	e000      	b.n	202d62 <get_value+0xb6>
  202d60:	2300      	movs	r3, #0
  202d62:	4917      	ldr	r1, [pc, #92]	; (202dc0 <get_value+0x114>)
  202d64:	680a      	ldr	r2, [r1, #0]
  202d66:	07d2      	lsls	r2, r2, #31
  202d68:	d5fc      	bpl.n	202d64 <get_value+0xb8>
  202d6a:	4a16      	ldr	r2, [pc, #88]	; (202dc4 <get_value+0x118>)
  202d6c:	6811      	ldr	r1, [r2, #0]
  202d6e:	3949      	subs	r1, #73	; 0x49
  202d70:	b249      	sxtb	r1, r1
  202d72:	b10b      	cbz	r3, 202d78 <get_value+0xcc>
  202d74:	f7ff ff28 	bl	202bc8 <off>
  202d78:	6021      	str	r1, [r4, #0]
  202d7a:	e006      	b.n	202d8a <get_value+0xde>
  202d7c:	230b      	movs	r3, #11
  202d7e:	e003      	b.n	202d88 <get_value+0xdc>
  202d80:	231a      	movs	r3, #26
  202d82:	e001      	b.n	202d88 <get_value+0xdc>
  202d84:	f06f 0317 	mvn.w	r3, #23
  202d88:	6023      	str	r3, [r4, #0]
  202d8a:	2000      	movs	r0, #0
  202d8c:	bd10      	pop	{r4, pc}
  202d8e:	2307      	movs	r3, #7
  202d90:	e7fa      	b.n	202d88 <get_value+0xdc>
  202d92:	2002      	movs	r0, #2
  202d94:	bd10      	pop	{r4, pc}
  202d96:	2001      	movs	r0, #1
  202d98:	bd10      	pop	{r4, pc}
  202d9a:	bf00      	nop
  202d9c:	4008862c 	.word	0x4008862c
  202da0:	4008863c 	.word	0x4008863c
  202da4:	400885cc 	.word	0x400885cc
  202da8:	400885d4 	.word	0x400885d4
  202dac:	40088600 	.word	0x40088600
  202db0:	40088640 	.word	0x40088640
  202db4:	0020640c 	.word	0x0020640c
  202db8:	40088658 	.word	0x40088658
  202dbc:	40088648 	.word	0x40088648
  202dc0:	40088664 	.word	0x40088664
  202dc4:	40088660 	.word	0x40088660

00202dc8 <prepare>:
  202dc8:	b538      	push	{r3, r4, r5, lr}
  202dca:	4605      	mov	r5, r0
  202dcc:	460c      	mov	r4, r1
  202dce:	4a13      	ldr	r2, [pc, #76]	; (202e1c <prepare+0x54>)
  202dd0:	6813      	ldr	r3, [r2, #0]
  202dd2:	079b      	lsls	r3, r3, #30
  202dd4:	d4fc      	bmi.n	202dd0 <prepare+0x8>
  202dd6:	4b12      	ldr	r3, [pc, #72]	; (202e20 <prepare+0x58>)
  202dd8:	f993 3000 	ldrsb.w	r3, [r3]
  202ddc:	2b00      	cmp	r3, #0
  202dde:	db01      	blt.n	202de4 <prepare+0x1c>
  202de0:	f7ff fedc 	bl	202b9c <on>
  202de4:	4b0f      	ldr	r3, [pc, #60]	; (202e24 <prepare+0x5c>)
  202de6:	22ee      	movs	r2, #238	; 0xee
  202de8:	601a      	str	r2, [r3, #0]
  202dea:	1e69      	subs	r1, r5, #1
  202dec:	601a      	str	r2, [r3, #0]
  202dee:	1ca2      	adds	r2, r4, #2
  202df0:	f843 2c10 	str.w	r2, [r3, #-16]
  202df4:	4421      	add	r1, r4
  202df6:	2002      	movs	r0, #2
  202df8:	f000 fa38 	bl	20326c <udma_set_channel_src>
  202dfc:	3c01      	subs	r4, #1
  202dfe:	490a      	ldr	r1, [pc, #40]	; (202e28 <prepare+0x60>)
  202e00:	0124      	lsls	r4, r4, #4
  202e02:	4321      	orrs	r1, r4
  202e04:	2002      	movs	r0, #2
  202e06:	f000 fa43 	bl	203290 <udma_set_channel_control_word>
  202e0a:	2002      	movs	r0, #2
  202e0c:	f000 fa4a 	bl	2032a4 <udma_channel_enable>
  202e10:	2002      	movs	r0, #2
  202e12:	f000 fa5f 	bl	2032d4 <udma_channel_sw_request>
  202e16:	2000      	movs	r0, #0
  202e18:	bd38      	pop	{r3, r4, r5, pc}
  202e1a:	bf00      	nop
  202e1c:	4008864c 	.word	0x4008864c
  202e20:	20000c64 	.word	0x20000c64
  202e24:	40088838 	.word	0x40088838
  202e28:	c001c002 	.word	0xc001c002

00202e2c <transmit>:
  202e2c:	b5f8      	push	{r3, r4, r5, r6, r7, lr}
  202e2e:	4b1f      	ldr	r3, [pc, #124]	; (202eac <transmit+0x80>)
  202e30:	f993 3000 	ldrsb.w	r3, [r3]
  202e34:	2b00      	cmp	r3, #0
  202e36:	db0d      	blt.n	202e54 <transmit+0x28>
  202e38:	f7ff fbfa 	bl	202630 <rtimer_arch_now>
  202e3c:	4605      	mov	r5, r0
  202e3e:	f7ff fead 	bl	202b9c <on>
  202e42:	f06f 0409 	mvn.w	r4, #9
  202e46:	1b64      	subs	r4, r4, r5
  202e48:	f7ff fbf2 	bl	202630 <rtimer_arch_now>
  202e4c:	42c4      	cmn	r4, r0
  202e4e:	d4fb      	bmi.n	202e48 <transmit+0x1c>
  202e50:	2601      	movs	r6, #1
  202e52:	e000      	b.n	202e56 <transmit+0x2a>
  202e54:	2600      	movs	r6, #0
  202e56:	f7ff fef7 	bl	202c48 <channel_clear>
  202e5a:	b318      	cbz	r0, 202ea4 <transmit+0x78>
  202e5c:	4c14      	ldr	r4, [pc, #80]	; (202eb0 <transmit+0x84>)
  202e5e:	6823      	ldr	r3, [r4, #0]
  202e60:	0699      	lsls	r1, r3, #26
  202e62:	d41f      	bmi.n	202ea4 <transmit+0x78>
  202e64:	4d13      	ldr	r5, [pc, #76]	; (202eb4 <transmit+0x88>)
  202e66:	23e9      	movs	r3, #233	; 0xe9
  202e68:	602b      	str	r3, [r5, #0]
  202e6a:	2704      	movs	r7, #4
  202e6c:	6823      	ldr	r3, [r4, #0]
  202e6e:	079a      	lsls	r2, r3, #30
  202e70:	d407      	bmi.n	202e82 <transmit+0x56>
  202e72:	3f01      	subs	r7, #1
  202e74:	f017 07ff 	ands.w	r7, r7, #255	; 0xff
  202e78:	d003      	beq.n	202e82 <transmit+0x56>
  202e7a:	2006      	movs	r0, #6
  202e7c:	f7ff fbb4 	bl	2025e8 <clock_delay_usec>
  202e80:	e7f4      	b.n	202e6c <transmit+0x40>
  202e82:	6823      	ldr	r3, [r4, #0]
  202e84:	079b      	lsls	r3, r3, #30
  202e86:	d404      	bmi.n	202e92 <transmit+0x66>
  202e88:	23ee      	movs	r3, #238	; 0xee
  202e8a:	602b      	str	r3, [r5, #0]
  202e8c:	2101      	movs	r1, #1
  202e8e:	602b      	str	r3, [r5, #0]
  202e90:	e004      	b.n	202e9c <transmit+0x70>
  202e92:	6820      	ldr	r0, [r4, #0]
  202e94:	f010 0002 	ands.w	r0, r0, #2
  202e98:	d1fb      	bne.n	202e92 <transmit+0x66>
  202e9a:	4601      	mov	r1, r0
  202e9c:	b126      	cbz	r6, 202ea8 <transmit+0x7c>
  202e9e:	f7ff fe93 	bl	202bc8 <off>
  202ea2:	e001      	b.n	202ea8 <transmit+0x7c>
  202ea4:	2002      	movs	r0, #2
  202ea6:	bdf8      	pop	{r3, r4, r5, r6, r7, pc}
  202ea8:	4608      	mov	r0, r1
  202eaa:	bdf8      	pop	{r3, r4, r5, r6, r7, pc}
  202eac:	20000c64 	.word	0x20000c64
  202eb0:	4008864c 	.word	0x4008864c
  202eb4:	40088838 	.word	0x40088838

00202eb8 <set_value>:
  202eb8:	b510      	push	{r4, lr}
  202eba:	2807      	cmp	r0, #7
  202ebc:	d859      	bhi.n	202f72 <set_value+0xba>
  202ebe:	e8df f000 	tbb	[pc, r0]
  202ec2:	0f04      	.short	0x0f04
  202ec4:	58251e1a 	.word	0x58251e1a
  202ec8:	533e      	.short	0x533e
  202eca:	2901      	cmp	r1, #1
  202ecc:	d103      	bne.n	202ed6 <set_value+0x1e>
  202ece:	f7ff fe65 	bl	202b9c <on>
  202ed2:	2000      	movs	r0, #0
  202ed4:	bd10      	pop	{r4, pc}
  202ed6:	2900      	cmp	r1, #0
  202ed8:	d14d      	bne.n	202f76 <set_value+0xbe>
  202eda:	f7ff fe75 	bl	202bc8 <off>
  202ede:	e7f8      	b.n	202ed2 <set_value+0x1a>
  202ee0:	f1a1 030b 	sub.w	r3, r1, #11
  202ee4:	2b0f      	cmp	r3, #15
  202ee6:	d846      	bhi.n	202f76 <set_value+0xbe>
  202ee8:	b2c8      	uxtb	r0, r1
  202eea:	f7ff fe89 	bl	202c00 <set_channel>
  202eee:	3001      	adds	r0, #1
  202ef0:	d1ef      	bne.n	202ed2 <set_value+0x1a>
  202ef2:	2003      	movs	r0, #3
  202ef4:	bd10      	pop	{r4, pc}
  202ef6:	b288      	uxth	r0, r1
  202ef8:	b2c2      	uxtb	r2, r0
  202efa:	4b20      	ldr	r3, [pc, #128]	; (202f7c <set_value+0xc4>)
  202efc:	e002      	b.n	202f04 <set_value+0x4c>
  202efe:	b288      	uxth	r0, r1
  202f00:	4b1f      	ldr	r3, [pc, #124]	; (202f80 <set_value+0xc8>)
  202f02:	b2c2      	uxtb	r2, r0
  202f04:	0a01      	lsrs	r1, r0, #8
  202f06:	601a      	str	r2, [r3, #0]
  202f08:	6059      	str	r1, [r3, #4]
  202f0a:	e7e2      	b.n	202ed2 <set_value+0x1a>
  202f0c:	f031 0303 	bics.w	r3, r1, #3
  202f10:	d131      	bne.n	202f76 <set_value+0xbe>
  202f12:	4b1c      	ldr	r3, [pc, #112]	; (202f84 <set_value+0xcc>)
  202f14:	f011 0f01 	tst.w	r1, #1
  202f18:	681a      	ldr	r2, [r3, #0]
  202f1a:	bf14      	ite	ne
  202f1c:	f042 0201 	orrne.w	r2, r2, #1
  202f20:	f022 0201 	biceq.w	r2, r2, #1
  202f24:	601a      	str	r2, [r3, #0]
  202f26:	4b18      	ldr	r3, [pc, #96]	; (202f88 <set_value+0xd0>)
  202f28:	f011 0002 	ands.w	r0, r1, #2
  202f2c:	681a      	ldr	r2, [r3, #0]
  202f2e:	d002      	beq.n	202f36 <set_value+0x7e>
  202f30:	f042 0220 	orr.w	r2, r2, #32
  202f34:	e012      	b.n	202f5c <set_value+0xa4>
  202f36:	f022 0220 	bic.w	r2, r2, #32
  202f3a:	601a      	str	r2, [r3, #0]
  202f3c:	bd10      	pop	{r4, pc}
  202f3e:	f101 0318 	add.w	r3, r1, #24
  202f42:	2b1f      	cmp	r3, #31
  202f44:	d817      	bhi.n	202f76 <set_value+0xbe>
  202f46:	4811      	ldr	r0, [pc, #68]	; (202f8c <set_value+0xd4>)
  202f48:	230d      	movs	r3, #13
  202f4a:	f850 4033 	ldr.w	r4, [r0, r3, lsl #3]
  202f4e:	00da      	lsls	r2, r3, #3
  202f50:	42a1      	cmp	r1, r4
  202f52:	dc05      	bgt.n	202f60 <set_value+0xa8>
  202f54:	4b0d      	ldr	r3, [pc, #52]	; (202f8c <set_value+0xd4>)
  202f56:	4413      	add	r3, r2
  202f58:	791a      	ldrb	r2, [r3, #4]
  202f5a:	4b0d      	ldr	r3, [pc, #52]	; (202f90 <set_value+0xd8>)
  202f5c:	601a      	str	r2, [r3, #0]
  202f5e:	e7b8      	b.n	202ed2 <set_value+0x1a>
  202f60:	f113 33ff 	adds.w	r3, r3, #4294967295	; 0xffffffff
  202f64:	d2f1      	bcs.n	202f4a <set_value+0x92>
  202f66:	e7b4      	b.n	202ed2 <set_value+0x1a>
  202f68:	b2c9      	uxtb	r1, r1
  202f6a:	4b0a      	ldr	r3, [pc, #40]	; (202f94 <set_value+0xdc>)
  202f6c:	3149      	adds	r1, #73	; 0x49
  202f6e:	6019      	str	r1, [r3, #0]
  202f70:	e7af      	b.n	202ed2 <set_value+0x1a>
  202f72:	2001      	movs	r0, #1
  202f74:	bd10      	pop	{r4, pc}
  202f76:	2002      	movs	r0, #2
  202f78:	bd10      	pop	{r4, pc}
  202f7a:	bf00      	nop
  202f7c:	400885c8 	.word	0x400885c8
  202f80:	400885d0 	.word	0x400885d0
  202f84:	40088600 	.word	0x40088600
  202f88:	40088624 	.word	0x40088624
  202f8c:	0020640c 	.word	0x0020640c
  202f90:	40088640 	.word	0x40088640
  202f94:	40088658 	.word	0x40088658

00202f98 <get_object>:
  202f98:	280b      	cmp	r0, #11
  202f9a:	d10d      	bne.n	202fb8 <get_object+0x20>
  202f9c:	2a08      	cmp	r2, #8
  202f9e:	d10d      	bne.n	202fbc <get_object+0x24>
  202fa0:	b161      	cbz	r1, 202fbc <get_object+0x24>
  202fa2:	4b07      	ldr	r3, [pc, #28]	; (202fc0 <get_object+0x28>)
  202fa4:	4a07      	ldr	r2, [pc, #28]	; (202fc4 <get_object+0x2c>)
  202fa6:	3901      	subs	r1, #1
  202fa8:	f853 0d04 	ldr.w	r0, [r3, #-4]!
  202fac:	4293      	cmp	r3, r2
  202fae:	f801 0f01 	strb.w	r0, [r1, #1]!
  202fb2:	d1f9      	bne.n	202fa8 <get_object+0x10>
  202fb4:	2000      	movs	r0, #0
  202fb6:	4770      	bx	lr
  202fb8:	2001      	movs	r0, #1
  202fba:	4770      	bx	lr
  202fbc:	2002      	movs	r0, #2
  202fbe:	4770      	bx	lr
  202fc0:	400885c8 	.word	0x400885c8
  202fc4:	400885a8 	.word	0x400885a8

00202fc8 <set_object>:
  202fc8:	280b      	cmp	r0, #11
  202fca:	d10d      	bne.n	202fe8 <set_object+0x20>
  202fcc:	2a08      	cmp	r2, #8
  202fce:	d10d      	bne.n	202fec <set_object+0x24>
  202fd0:	b161      	cbz	r1, 202fec <set_object+0x24>
  202fd2:	4b07      	ldr	r3, [pc, #28]	; (202ff0 <set_object+0x28>)
  202fd4:	4a07      	ldr	r2, [pc, #28]	; (202ff4 <set_object+0x2c>)
  202fd6:	3108      	adds	r1, #8
  202fd8:	f811 0d01 	ldrb.w	r0, [r1, #-1]!
  202fdc:	f843 0f04 	str.w	r0, [r3, #4]!
  202fe0:	4293      	cmp	r3, r2
  202fe2:	d1f9      	bne.n	202fd8 <set_object+0x10>
  202fe4:	2000      	movs	r0, #0
  202fe6:	4770      	bx	lr
  202fe8:	2001      	movs	r0, #1
  202fea:	4770      	bx	lr
  202fec:	2002      	movs	r0, #2
  202fee:	4770      	bx	lr
  202ff0:	400885a4 	.word	0x400885a4
  202ff4:	400885c4 	.word	0x400885c4

00202ff8 <read>:
  202ff8:	b570      	push	{r4, r5, r6, lr}
  202ffa:	4e2b      	ldr	r6, [pc, #172]	; (2030a8 <read+0xb0>)
  202ffc:	6833      	ldr	r3, [r6, #0]
  202ffe:	f013 0340 	ands.w	r3, r3, #64	; 0x40
  203002:	d008      	beq.n	203016 <read+0x1e>
  203004:	4d29      	ldr	r5, [pc, #164]	; (2030ac <read+0xb4>)
  203006:	682b      	ldr	r3, [r5, #0]
  203008:	b2dc      	uxtb	r4, r3
  20300a:	061b      	lsls	r3, r3, #24
  20300c:	d505      	bpl.n	20301a <read+0x22>
  20300e:	4b28      	ldr	r3, [pc, #160]	; (2030b0 <read+0xb8>)
  203010:	22ed      	movs	r2, #237	; 0xed
  203012:	601a      	str	r2, [r3, #0]
  203014:	601a      	str	r2, [r3, #0]
  203016:	2000      	movs	r0, #0
  203018:	bd70      	pop	{r4, r5, r6, pc}
  20301a:	2c04      	cmp	r4, #4
  20301c:	d9f7      	bls.n	20300e <read+0x16>
  20301e:	3c02      	subs	r4, #2
  203020:	428c      	cmp	r4, r1
  203022:	dcf4      	bgt.n	20300e <read+0x16>
  203024:	b2e4      	uxtb	r4, r4
  203026:	2c03      	cmp	r4, #3
  203028:	d01b      	beq.n	203062 <read+0x6a>
  20302a:	1901      	adds	r1, r0, r4
  20302c:	3901      	subs	r1, #1
  20302e:	2003      	movs	r0, #3
  203030:	f000 f924 	bl	20327c <udma_set_channel_dst>
  203034:	1e63      	subs	r3, r4, #1
  203036:	491f      	ldr	r1, [pc, #124]	; (2030b4 <read+0xbc>)
  203038:	011b      	lsls	r3, r3, #4
  20303a:	4319      	orrs	r1, r3
  20303c:	2003      	movs	r0, #3
  20303e:	f000 f927 	bl	203290 <udma_set_channel_control_word>
  203042:	2003      	movs	r0, #3
  203044:	f000 f92e 	bl	2032a4 <udma_channel_enable>
  203048:	2003      	movs	r0, #3
  20304a:	f000 f943 	bl	2032d4 <udma_channel_sw_request>
  20304e:	2003      	movs	r0, #3
  203050:	f000 f94c 	bl	2032ec <udma_channel_get_mode>
  203054:	2800      	cmp	r0, #0
  203056:	d1fa      	bne.n	20304e <read+0x56>
  203058:	6829      	ldr	r1, [r5, #0]
  20305a:	682d      	ldr	r5, [r5, #0]
  20305c:	0628      	lsls	r0, r5, #24
  20305e:	d5d6      	bpl.n	20300e <read+0x16>
  203060:	e006      	b.n	203070 <read+0x78>
  203062:	682b      	ldr	r3, [r5, #0]
  203064:	7003      	strb	r3, [r0, #0]
  203066:	682b      	ldr	r3, [r5, #0]
  203068:	7043      	strb	r3, [r0, #1]
  20306a:	682b      	ldr	r3, [r5, #0]
  20306c:	7083      	strb	r3, [r0, #2]
  20306e:	e7f3      	b.n	203058 <read+0x60>
  203070:	3949      	subs	r1, #73	; 0x49
  203072:	b249      	sxtb	r1, r1
  203074:	b289      	uxth	r1, r1
  203076:	2004      	movs	r0, #4
  203078:	f001 fcc0 	bl	2049fc <packetbuf_set_attr>
  20307c:	f005 017f 	and.w	r1, r5, #127	; 0x7f
  203080:	2003      	movs	r0, #3
  203082:	f001 fcbb 	bl	2049fc <packetbuf_set_attr>
  203086:	6833      	ldr	r3, [r6, #0]
  203088:	065a      	lsls	r2, r3, #25
  20308a:	d50b      	bpl.n	2030a4 <read+0xac>
  20308c:	4b06      	ldr	r3, [pc, #24]	; (2030a8 <read+0xb0>)
  20308e:	681b      	ldr	r3, [r3, #0]
  203090:	061b      	lsls	r3, r3, #24
  203092:	d503      	bpl.n	20309c <read+0xa4>
  203094:	4808      	ldr	r0, [pc, #32]	; (2030b8 <read+0xc0>)
  203096:	f001 f859 	bl	20414c <process_poll>
  20309a:	e003      	b.n	2030a4 <read+0xac>
  20309c:	4b04      	ldr	r3, [pc, #16]	; (2030b0 <read+0xb8>)
  20309e:	22ed      	movs	r2, #237	; 0xed
  2030a0:	601a      	str	r2, [r3, #0]
  2030a2:	601a      	str	r2, [r3, #0]
  2030a4:	4620      	mov	r0, r4
  2030a6:	bd70      	pop	{r4, r5, r6, pc}
  2030a8:	4008864c 	.word	0x4008864c
  2030ac:	40088828 	.word	0x40088828
  2030b0:	40088838 	.word	0x40088838
  2030b4:	0c01c002 	.word	0x0c01c002
  2030b8:	20000048 	.word	0x20000048

002030bc <init>:
  2030bc:	b5f8      	push	{r3, r4, r5, r6, r7, lr}
  2030be:	4e2b      	ldr	r6, [pc, #172]	; (20316c <init+0xb0>)
  2030c0:	7835      	ldrb	r5, [r6, #0]
  2030c2:	f015 0501 	ands.w	r5, r5, #1
  2030c6:	d14e      	bne.n	203166 <init+0xaa>
  2030c8:	4b29      	ldr	r3, [pc, #164]	; (203170 <init+0xb4>)
  2030ca:	2401      	movs	r4, #1
  2030cc:	601c      	str	r4, [r3, #0]
  2030ce:	605c      	str	r4, [r3, #4]
  2030d0:	609c      	str	r4, [r3, #8]
  2030d2:	f5a3 2393 	sub.w	r3, r3, #301056	; 0x49800
  2030d6:	f5a3 7314 	sub.w	r3, r3, #592	; 0x250
  2030da:	22f8      	movs	r2, #248	; 0xf8
  2030dc:	601a      	str	r2, [r3, #0]
  2030de:	2209      	movs	r2, #9
  2030e0:	f8c3 2190 	str.w	r2, [r3, #400]	; 0x190
  2030e4:	2215      	movs	r2, #21
  2030e6:	3370      	adds	r3, #112	; 0x70
  2030e8:	601a      	str	r2, [r3, #0]
  2030ea:	f503 239b 	add.w	r3, r3, #317440	; 0x4d800
  2030ee:	220b      	movs	r2, #11
  2030f0:	f503 739e 	add.w	r3, r3, #316	; 0x13c
  2030f4:	601a      	str	r2, [r3, #0]
  2030f6:	f5a3 239b 	sub.w	r3, r3, #317440	; 0x4d800
  2030fa:	f5a3 73f0 	sub.w	r3, r3, #480	; 0x1e0
  2030fe:	2240      	movs	r2, #64	; 0x40
  203100:	601a      	str	r2, [r3, #0]
  203102:	681a      	ldr	r2, [r3, #0]
  203104:	277f      	movs	r7, #127	; 0x7f
  203106:	f042 0220 	orr.w	r2, r2, #32
  20310a:	601a      	str	r2, [r3, #0]
  20310c:	22d5      	movs	r2, #213	; 0xd5
  20310e:	f843 5c1c 	str.w	r5, [r3, #-28]
  203112:	62df      	str	r7, [r3, #44]	; 0x2c
  203114:	61da      	str	r2, [r3, #28]
  203116:	4b17      	ldr	r3, [pc, #92]	; (203174 <init+0xb8>)
  203118:	7818      	ldrb	r0, [r3, #0]
  20311a:	f7ff fd71 	bl	202c00 <set_channel>
  20311e:	4a16      	ldr	r2, [pc, #88]	; (203178 <init+0xbc>)
  203120:	208d      	movs	r0, #141	; 0x8d
  203122:	6813      	ldr	r3, [r2, #0]
  203124:	f043 0304 	orr.w	r3, r3, #4
  203128:	6013      	str	r3, [r2, #0]
  20312a:	f7ff fc2f 	bl	20298c <nvic_interrupt_enable>
  20312e:	4b13      	ldr	r3, [pc, #76]	; (20317c <init+0xc0>)
  203130:	208e      	movs	r0, #142	; 0x8e
  203132:	601f      	str	r7, [r3, #0]
  203134:	f7ff fc2a 	bl	20298c <nvic_interrupt_enable>
  203138:	2002      	movs	r0, #2
  20313a:	f000 f8bf 	bl	2032bc <udma_channel_mask_set>
  20313e:	4910      	ldr	r1, [pc, #64]	; (203180 <init+0xc4>)
  203140:	2002      	movs	r0, #2
  203142:	f000 f89b 	bl	20327c <udma_set_channel_dst>
  203146:	2003      	movs	r0, #3
  203148:	f000 f8b8 	bl	2032bc <udma_channel_mask_set>
  20314c:	490c      	ldr	r1, [pc, #48]	; (203180 <init+0xc4>)
  20314e:	2003      	movs	r0, #3
  203150:	f000 f88c 	bl	20326c <udma_set_channel_src>
  203154:	4629      	mov	r1, r5
  203156:	480b      	ldr	r0, [pc, #44]	; (203184 <init+0xc8>)
  203158:	f000 ffe0 	bl	20411c <process_start>
  20315c:	7833      	ldrb	r3, [r6, #0]
  20315e:	4620      	mov	r0, r4
  203160:	4323      	orrs	r3, r4
  203162:	7033      	strb	r3, [r6, #0]
  203164:	bdf8      	pop	{r3, r4, r5, r6, r7, pc}
  203166:	2000      	movs	r0, #0
  203168:	bdf8      	pop	{r3, r4, r5, r6, r7, pc}
  20316a:	bf00      	nop
  20316c:	20000c64 	.word	0x20000c64
  203170:	400d20a8 	.word	0x400d20a8
  203174:	200000ee 	.word	0x200000ee
  203178:	4008868c 	.word	0x4008868c
  20317c:	40088694 	.word	0x40088694
  203180:	40088828 	.word	0x40088828
  203184:	20000048 	.word	0x20000048

00203188 <process_thread_cc2538_rf_process>:
  203188:	b538      	push	{r3, r4, r5, lr}
  20318a:	8803      	ldrh	r3, [r0, #0]
  20318c:	4604      	mov	r4, r0
  20318e:	b1e3      	cbz	r3, 2031ca <process_thread_cc2538_rf_process+0x42>
  203190:	f240 32b9 	movw	r2, #953	; 0x3b9
  203194:	4293      	cmp	r3, r2
  203196:	d003      	beq.n	2031a0 <process_thread_cc2538_rf_process+0x18>
  203198:	2300      	movs	r3, #0
  20319a:	8003      	strh	r3, [r0, #0]
  20319c:	2003      	movs	r0, #3
  20319e:	bd38      	pop	{r3, r4, r5, pc}
  2031a0:	2982      	cmp	r1, #130	; 0x82
  2031a2:	d115      	bne.n	2031d0 <process_thread_cc2538_rf_process+0x48>
  2031a4:	f001 fbd4 	bl	204950 <packetbuf_clear>
  2031a8:	f001 fb72 	bl	204890 <packetbuf_dataptr>
  2031ac:	2180      	movs	r1, #128	; 0x80
  2031ae:	f7ff ff23 	bl	202ff8 <read>
  2031b2:	2800      	cmp	r0, #0
  2031b4:	dd05      	ble.n	2031c2 <process_thread_cc2538_rf_process+0x3a>
  2031b6:	b280      	uxth	r0, r0
  2031b8:	f001 fb64 	bl	204884 <packetbuf_set_datalen>
  2031bc:	4b0c      	ldr	r3, [pc, #48]	; (2031f0 <process_thread_cc2538_rf_process+0x68>)
  2031be:	691b      	ldr	r3, [r3, #16]
  2031c0:	4798      	blx	r3
  2031c2:	4b0c      	ldr	r3, [pc, #48]	; (2031f4 <process_thread_cc2538_rf_process+0x6c>)
  2031c4:	781a      	ldrb	r2, [r3, #0]
  2031c6:	0652      	lsls	r2, r2, #25
  2031c8:	d404      	bmi.n	2031d4 <process_thread_cc2538_rf_process+0x4c>
  2031ca:	f240 33b9 	movw	r3, #953	; 0x3b9
  2031ce:	8023      	strh	r3, [r4, #0]
  2031d0:	2001      	movs	r0, #1
  2031d2:	bd38      	pop	{r3, r4, r5, pc}
  2031d4:	2200      	movs	r2, #0
  2031d6:	701a      	strb	r2, [r3, #0]
  2031d8:	4b07      	ldr	r3, [pc, #28]	; (2031f8 <process_thread_cc2538_rf_process+0x70>)
  2031da:	681d      	ldr	r5, [r3, #0]
  2031dc:	f7ff fcf4 	bl	202bc8 <off>
  2031e0:	f7ff ff6c 	bl	2030bc <init>
  2031e4:	06ab      	lsls	r3, r5, #26
  2031e6:	d0f0      	beq.n	2031ca <process_thread_cc2538_rf_process+0x42>
  2031e8:	f7ff fcd8 	bl	202b9c <on>
  2031ec:	e7ed      	b.n	2031ca <process_thread_cc2538_rf_process+0x42>
  2031ee:	bf00      	nop
  2031f0:	002064cc 	.word	0x002064cc
  2031f4:	20000c64 	.word	0x20000c64
  2031f8:	40088648 	.word	0x40088648

002031fc <cc2538_rf_rx_tx_isr>:
  2031fc:	b508      	push	{r3, lr}
  2031fe:	4803      	ldr	r0, [pc, #12]	; (20320c <cc2538_rf_rx_tx_isr+0x10>)
  203200:	f000 ffa4 	bl	20414c <process_poll>
  203204:	4b02      	ldr	r3, [pc, #8]	; (203210 <cc2538_rf_rx_tx_isr+0x14>)
  203206:	2200      	movs	r2, #0
  203208:	601a      	str	r2, [r3, #0]
  20320a:	bd08      	pop	{r3, pc}
  20320c:	20000048 	.word	0x20000048
  203210:	40088834 	.word	0x40088834

00203214 <cc2538_rf_err_isr>:
  203214:	4b06      	ldr	r3, [pc, #24]	; (203230 <cc2538_rf_err_isr+0x1c>)
  203216:	4807      	ldr	r0, [pc, #28]	; (203234 <cc2538_rf_err_isr+0x20>)
  203218:	681a      	ldr	r2, [r3, #0]
  20321a:	2a04      	cmp	r2, #4
  20321c:	bf1f      	itttt	ne
  20321e:	4906      	ldrne	r1, [pc, #24]	; (203238 <cc2538_rf_err_isr+0x24>)
  203220:	780a      	ldrbne	r2, [r1, #0]
  203222:	f042 0240 	orrne.w	r2, r2, #64	; 0x40
  203226:	700a      	strbne	r2, [r1, #0]
  203228:	2200      	movs	r2, #0
  20322a:	601a      	str	r2, [r3, #0]
  20322c:	f000 bf8e 	b.w	20414c <process_poll>
  203230:	4008882c 	.word	0x4008882c
  203234:	20000048 	.word	0x20000048
  203238:	20000c64 	.word	0x20000c64

0020323c <udma_init>:
  20323c:	b510      	push	{r4, lr}
  20323e:	4c09      	ldr	r4, [pc, #36]	; (203264 <udma_init+0x28>)
  203240:	2240      	movs	r2, #64	; 0x40
  203242:	2100      	movs	r1, #0
  203244:	4620      	mov	r0, r4
  203246:	f002 fb99 	bl	20597c <memset>
  20324a:	4b07      	ldr	r3, [pc, #28]	; (203268 <udma_init+0x2c>)
  20324c:	2201      	movs	r2, #1
  20324e:	601a      	str	r2, [r3, #0]
  203250:	202e      	movs	r0, #46	; 0x2e
  203252:	605c      	str	r4, [r3, #4]
  203254:	f7ff fb9a 	bl	20298c <nvic_interrupt_enable>
  203258:	e8bd 4010 	ldmia.w	sp!, {r4, lr}
  20325c:	202f      	movs	r0, #47	; 0x2f
  20325e:	f7ff bb95 	b.w	20298c <nvic_interrupt_enable>
  203262:	bf00      	nop
  203264:	20000000 	.word	0x20000000
  203268:	400ff004 	.word	0x400ff004

0020326c <udma_set_channel_src>:
  20326c:	2803      	cmp	r0, #3
  20326e:	bf9e      	ittt	ls
  203270:	4b01      	ldrls	r3, [pc, #4]	; (203278 <udma_set_channel_src+0xc>)
  203272:	0100      	lslls	r0, r0, #4
  203274:	5019      	strls	r1, [r3, r0]
  203276:	4770      	bx	lr
  203278:	20000000 	.word	0x20000000

0020327c <udma_set_channel_dst>:
  20327c:	2803      	cmp	r0, #3
  20327e:	bf9e      	ittt	ls
  203280:	4b02      	ldrls	r3, [pc, #8]	; (20328c <udma_set_channel_dst+0x10>)
  203282:	eb03 1000 	addls.w	r0, r3, r0, lsl #4
  203286:	6041      	strls	r1, [r0, #4]
  203288:	4770      	bx	lr
  20328a:	bf00      	nop
  20328c:	20000000 	.word	0x20000000

00203290 <udma_set_channel_control_word>:
  203290:	2803      	cmp	r0, #3
  203292:	bf9e      	ittt	ls
  203294:	4b02      	ldrls	r3, [pc, #8]	; (2032a0 <udma_set_channel_control_word+0x10>)
  203296:	eb03 1000 	addls.w	r0, r3, r0, lsl #4
  20329a:	6081      	strls	r1, [r0, #8]
  20329c:	4770      	bx	lr
  20329e:	bf00      	nop
  2032a0:	20000000 	.word	0x20000000

002032a4 <udma_channel_enable>:
  2032a4:	2803      	cmp	r0, #3
  2032a6:	d806      	bhi.n	2032b6 <udma_channel_enable+0x12>
  2032a8:	4903      	ldr	r1, [pc, #12]	; (2032b8 <udma_channel_enable+0x14>)
  2032aa:	2201      	movs	r2, #1
  2032ac:	680b      	ldr	r3, [r1, #0]
  2032ae:	fa02 f000 	lsl.w	r0, r2, r0
  2032b2:	4318      	orrs	r0, r3
  2032b4:	6008      	str	r0, [r1, #0]
  2032b6:	4770      	bx	lr
  2032b8:	400ff028 	.word	0x400ff028

002032bc <udma_channel_mask_set>:
  2032bc:	2803      	cmp	r0, #3
  2032be:	d806      	bhi.n	2032ce <udma_channel_mask_set+0x12>
  2032c0:	4903      	ldr	r1, [pc, #12]	; (2032d0 <udma_channel_mask_set+0x14>)
  2032c2:	2201      	movs	r2, #1
  2032c4:	680b      	ldr	r3, [r1, #0]
  2032c6:	fa02 f000 	lsl.w	r0, r2, r0
  2032ca:	4318      	orrs	r0, r3
  2032cc:	6008      	str	r0, [r1, #0]
  2032ce:	4770      	bx	lr
  2032d0:	400ff020 	.word	0x400ff020

002032d4 <udma_channel_sw_request>:
  2032d4:	2803      	cmp	r0, #3
  2032d6:	d806      	bhi.n	2032e6 <udma_channel_sw_request+0x12>
  2032d8:	4903      	ldr	r1, [pc, #12]	; (2032e8 <udma_channel_sw_request+0x14>)
  2032da:	2201      	movs	r2, #1
  2032dc:	680b      	ldr	r3, [r1, #0]
  2032de:	fa02 f000 	lsl.w	r0, r2, r0
  2032e2:	4318      	orrs	r0, r3
  2032e4:	6008      	str	r0, [r1, #0]
  2032e6:	4770      	bx	lr
  2032e8:	400ff014 	.word	0x400ff014

002032ec <udma_channel_get_mode>:
  2032ec:	2803      	cmp	r0, #3
  2032ee:	bf9f      	itttt	ls
  2032f0:	4b04      	ldrls	r3, [pc, #16]	; (203304 <udma_channel_get_mode+0x18>)
  2032f2:	eb03 1000 	addls.w	r0, r3, r0, lsl #4
  2032f6:	6880      	ldrls	r0, [r0, #8]
  2032f8:	f000 0007 	andls.w	r0, r0, #7
  2032fc:	bf88      	it	hi
  2032fe:	2000      	movhi	r0, #0
  203300:	4770      	bx	lr
  203302:	bf00      	nop
  203304:	20000000 	.word	0x20000000

00203308 <udma_isr>:
  203308:	4b02      	ldr	r3, [pc, #8]	; (203314 <udma_isr+0xc>)
  20330a:	f04f 32ff 	mov.w	r2, #4294967295	; 0xffffffff
  20330e:	601a      	str	r2, [r3, #0]
  203310:	4770      	bx	lr
  203312:	bf00      	nop
  203314:	400ff504 	.word	0x400ff504

00203318 <udma_err_isr>:
  203318:	4b01      	ldr	r3, [pc, #4]	; (203320 <udma_err_isr+0x8>)
  20331a:	2201      	movs	r2, #1
  20331c:	601a      	str	r2, [r3, #0]
  20331e:	4770      	bx	lr
  203320:	400ff04c 	.word	0x400ff04c

00203324 <select_32_mhz_xosc>:
  203324:	4a09      	ldr	r2, [pc, #36]	; (20334c <select_32_mhz_xosc+0x28>)
  203326:	6813      	ldr	r3, [r2, #0]
  203328:	4908      	ldr	r1, [pc, #32]	; (20334c <select_32_mhz_xosc+0x28>)
  20332a:	f413 1f80 	tst.w	r3, #1048576	; 0x100000
  20332e:	d1fa      	bne.n	203326 <select_32_mhz_xosc+0x2>
  203330:	4b07      	ldr	r3, [pc, #28]	; (203350 <select_32_mhz_xosc+0x2c>)
  203332:	681a      	ldr	r2, [r3, #0]
  203334:	f422 3280 	bic.w	r2, r2, #65536	; 0x10000
  203338:	601a      	str	r2, [r3, #0]
  20333a:	680a      	ldr	r2, [r1, #0]
  20333c:	03d2      	lsls	r2, r2, #15
  20333e:	d4fc      	bmi.n	20333a <select_32_mhz_xosc+0x16>
  203340:	681a      	ldr	r2, [r3, #0]
  203342:	f442 3200 	orr.w	r2, r2, #131072	; 0x20000
  203346:	601a      	str	r2, [r3, #0]
  203348:	4770      	bx	lr
  20334a:	bf00      	nop
  20334c:	400d2004 	.word	0x400d2004
  203350:	400d2000 	.word	0x400d2000

00203354 <lpm_exit>:
  203354:	b510      	push	{r4, lr}
  203356:	4b0b      	ldr	r3, [pc, #44]	; (203384 <lpm_exit+0x30>)
  203358:	681a      	ldr	r2, [r3, #0]
  20335a:	461c      	mov	r4, r3
  20335c:	f012 0f03 	tst.w	r2, #3
  203360:	d00e      	beq.n	203380 <lpm_exit+0x2c>
  203362:	4909      	ldr	r1, [pc, #36]	; (203388 <lpm_exit+0x34>)
  203364:	680b      	ldr	r3, [r1, #0]
  203366:	4a08      	ldr	r2, [pc, #32]	; (203388 <lpm_exit+0x34>)
  203368:	f013 6f80 	tst.w	r3, #67108864	; 0x4000000
  20336c:	d1fa      	bne.n	203364 <lpm_exit+0x10>
  20336e:	6813      	ldr	r3, [r2, #0]
  203370:	015b      	lsls	r3, r3, #5
  203372:	d5fc      	bpl.n	20336e <lpm_exit+0x1a>
  203374:	f7ff f946 	bl	202604 <clock_adjust>
  203378:	f7ff ffd4 	bl	203324 <select_32_mhz_xosc>
  20337c:	2300      	movs	r3, #0
  20337e:	6023      	str	r3, [r4, #0]
  203380:	bd10      	pop	{r4, pc}
  203382:	bf00      	nop
  203384:	400d2058 	.word	0x400d2058
  203388:	400d2004 	.word	0x400d2004

0020338c <lpm_enter>:
  20338c:	b538      	push	{r3, r4, r5, lr}
  20338e:	4b26      	ldr	r3, [pc, #152]	; (203428 <lpm_enter+0x9c>)
  203390:	681c      	ldr	r4, [r3, #0]
  203392:	f014 043f 	ands.w	r4, r4, #63	; 0x3f
  203396:	d113      	bne.n	2033c0 <lpm_enter+0x34>
  203398:	4d24      	ldr	r5, [pc, #144]	; (20342c <lpm_enter+0xa0>)
  20339a:	f855 3024 	ldr.w	r3, [r5, r4, lsl #2]
  20339e:	b123      	cbz	r3, 2033aa <lpm_enter+0x1e>
  2033a0:	4798      	blx	r3
  2033a2:	b168      	cbz	r0, 2033c0 <lpm_enter+0x34>
  2033a4:	3401      	adds	r4, #1
  2033a6:	2c05      	cmp	r4, #5
  2033a8:	d1f7      	bne.n	20339a <lpm_enter+0xe>
  2033aa:	4d21      	ldr	r5, [pc, #132]	; (203430 <lpm_enter+0xa4>)
  2033ac:	782b      	ldrb	r3, [r5, #0]
  2033ae:	b13b      	cbz	r3, 2033c0 <lpm_enter+0x34>
  2033b0:	f7ff f938 	bl	202624 <rtimer_arch_next_trigger>
  2033b4:	4604      	mov	r4, r0
  2033b6:	f7ff f93b 	bl	202630 <rtimer_arch_now>
  2033ba:	1a20      	subs	r0, r4, r0
  2033bc:	2809      	cmp	r0, #9
  2033be:	d801      	bhi.n	2033c4 <lpm_enter+0x38>
  2033c0:	bf30      	wfi
  2033c2:	bd38      	pop	{r3, r4, r5, pc}
  2033c4:	2c00      	cmp	r4, #0
  2033c6:	d0fb      	beq.n	2033c0 <lpm_enter+0x34>
  2033c8:	4b1a      	ldr	r3, [pc, #104]	; (203434 <lpm_enter+0xa8>)
  2033ca:	481b      	ldr	r0, [pc, #108]	; (203438 <lpm_enter+0xac>)
  2033cc:	681a      	ldr	r2, [r3, #0]
  2033ce:	f422 3200 	bic.w	r2, r2, #131072	; 0x20000
  2033d2:	601a      	str	r2, [r3, #0]
  2033d4:	6802      	ldr	r2, [r0, #0]
  2033d6:	4918      	ldr	r1, [pc, #96]	; (203438 <lpm_enter+0xac>)
  2033d8:	f412 1f80 	tst.w	r2, #1048576	; 0x100000
  2033dc:	d1fa      	bne.n	2033d4 <lpm_enter+0x48>
  2033de:	681a      	ldr	r2, [r3, #0]
  2033e0:	f442 3280 	orr.w	r2, r2, #65536	; 0x10000
  2033e4:	601a      	str	r2, [r3, #0]
  2033e6:	680b      	ldr	r3, [r1, #0]
  2033e8:	03db      	lsls	r3, r3, #15
  2033ea:	d5fc      	bpl.n	2033e6 <lpm_enter+0x5a>
  2033ec:	f7ff f920 	bl	202630 <rtimer_arch_now>
  2033f0:	1a20      	subs	r0, r4, r0
  2033f2:	2809      	cmp	r0, #9
  2033f4:	d803      	bhi.n	2033fe <lpm_enter+0x72>
  2033f6:	e8bd 4038 	ldmia.w	sp!, {r3, r4, r5, lr}
  2033fa:	f7ff bf93 	b.w	203324 <select_32_mhz_xosc>
  2033fe:	2863      	cmp	r0, #99	; 0x63
  203400:	4c0e      	ldr	r4, [pc, #56]	; (20343c <lpm_enter+0xb0>)
  203402:	d902      	bls.n	20340a <lpm_enter+0x7e>
  203404:	782b      	ldrb	r3, [r5, #0]
  203406:	2b02      	cmp	r3, #2
  203408:	d000      	beq.n	20340c <lpm_enter+0x80>
  20340a:	2301      	movs	r3, #1
  20340c:	6023      	str	r3, [r4, #0]
  20340e:	f000 fe53 	bl	2040b8 <process_nevents>
  203412:	b120      	cbz	r0, 20341e <lpm_enter+0x92>
  203414:	f7ff ff86 	bl	203324 <select_32_mhz_xosc>
  203418:	2300      	movs	r3, #0
  20341a:	6023      	str	r3, [r4, #0]
  20341c:	bd38      	pop	{r3, r4, r5, pc}
  20341e:	f7ff f901 	bl	202624 <rtimer_arch_next_trigger>
  203422:	2800      	cmp	r0, #0
  203424:	d1cc      	bne.n	2033c0 <lpm_enter+0x34>
  203426:	e7f5      	b.n	203414 <lpm_enter+0x88>
  203428:	40088648 	.word	0x40088648
  20342c:	200001b0 	.word	0x200001b0
  203430:	20000c65 	.word	0x20000c65
  203434:	400d2000 	.word	0x400d2000
  203438:	400d2004 	.word	0x400d2004
  20343c:	400d2058 	.word	0x400d2058

00203440 <lpm_register_peripheral>:
  203440:	4907      	ldr	r1, [pc, #28]	; (203460 <lpm_register_peripheral+0x20>)
  203442:	2300      	movs	r3, #0
  203444:	f851 2023 	ldr.w	r2, [r1, r3, lsl #2]
  203448:	4282      	cmp	r2, r0
  20344a:	d007      	beq.n	20345c <lpm_register_peripheral+0x1c>
  20344c:	b91a      	cbnz	r2, 203456 <lpm_register_peripheral+0x16>
  20344e:	4a04      	ldr	r2, [pc, #16]	; (203460 <lpm_register_peripheral+0x20>)
  203450:	f842 0023 	str.w	r0, [r2, r3, lsl #2]
  203454:	4770      	bx	lr
  203456:	3301      	adds	r3, #1
  203458:	2b05      	cmp	r3, #5
  20345a:	d1f3      	bne.n	203444 <lpm_register_peripheral+0x4>
  20345c:	4770      	bx	lr
  20345e:	bf00      	nop
  203460:	200001b0 	.word	0x200001b0

00203464 <lpm_init>:
  203464:	4b05      	ldr	r3, [pc, #20]	; (20347c <lpm_init+0x18>)
  203466:	2200      	movs	r2, #0
  203468:	601a      	str	r2, [r3, #0]
  20346a:	4a05      	ldr	r2, [pc, #20]	; (203480 <lpm_init+0x1c>)
  20346c:	6813      	ldr	r3, [r2, #0]
  20346e:	f043 0304 	orr.w	r3, r3, #4
  203472:	6013      	str	r3, [r2, #0]
  203474:	4b03      	ldr	r3, [pc, #12]	; (203484 <lpm_init+0x20>)
  203476:	2201      	movs	r2, #1
  203478:	701a      	strb	r2, [r3, #0]
  20347a:	4770      	bx	lr
  20347c:	400d2058 	.word	0x400d2058
  203480:	e000ed10 	.word	0xe000ed10
  203484:	20000c65 	.word	0x20000c65

00203488 <pka_isr>:
  203488:	b510      	push	{r4, lr}
  20348a:	2090      	movs	r0, #144	; 0x90
  20348c:	4c06      	ldr	r4, [pc, #24]	; (2034a8 <pka_isr+0x20>)
  20348e:	f7ff fa99 	bl	2029c4 <nvic_interrupt_unpend>
  203492:	2090      	movs	r0, #144	; 0x90
  203494:	f7ff fa88 	bl	2029a8 <nvic_interrupt_disable>
  203498:	6820      	ldr	r0, [r4, #0]
  20349a:	b118      	cbz	r0, 2034a4 <pka_isr+0x1c>
  20349c:	f000 fe56 	bl	20414c <process_poll>
  2034a0:	2300      	movs	r3, #0
  2034a2:	6023      	str	r3, [r4, #0]
  2034a4:	bd10      	pop	{r4, pc}
  2034a6:	bf00      	nop
  2034a8:	200001c4 	.word	0x200001c4

002034ac <ieee_addr_cpy_to>:
  2034ac:	b530      	push	{r4, r5, lr}
  2034ae:	4b18      	ldr	r3, [pc, #96]	; (203510 <ieee_addr_cpy_to+0x64>)
  2034b0:	781a      	ldrb	r2, [r3, #0]
  2034b2:	1e43      	subs	r3, r0, #1
  2034b4:	b122      	cbz	r2, 2034c0 <ieee_addr_cpy_to+0x14>
  2034b6:	f501 1120 	add.w	r1, r1, #2621440	; 0x280000
  2034ba:	3127      	adds	r1, #39	; 0x27
  2034bc:	4a15      	ldr	r2, [pc, #84]	; (203514 <ieee_addr_cpy_to+0x68>)
  2034be:	e01f      	b.n	203500 <ieee_addr_cpy_to+0x54>
  2034c0:	4a15      	ldr	r2, [pc, #84]	; (203518 <ieee_addr_cpy_to+0x6c>)
  2034c2:	7812      	ldrb	r2, [r2, #0]
  2034c4:	2a12      	cmp	r2, #18
  2034c6:	d1f6      	bne.n	2034b6 <ieee_addr_cpy_to+0xa>
  2034c8:	4a14      	ldr	r2, [pc, #80]	; (20351c <ieee_addr_cpy_to+0x70>)
  2034ca:	7812      	ldrb	r2, [r2, #0]
  2034cc:	2a4b      	cmp	r2, #75	; 0x4b
  2034ce:	d1f2      	bne.n	2034b6 <ieee_addr_cpy_to+0xa>
  2034d0:	084a      	lsrs	r2, r1, #1
  2034d2:	f102 1428 	add.w	r4, r2, #2621480	; 0x280028
  2034d6:	f1b4 1f28 	cmp.w	r4, #2621480	; 0x280028
  2034da:	d004      	beq.n	2034e6 <ieee_addr_cpy_to+0x3a>
  2034dc:	f814 5d01 	ldrb.w	r5, [r4, #-1]!
  2034e0:	f803 5f01 	strb.w	r5, [r3, #1]!
  2034e4:	e7f7      	b.n	2034d6 <ieee_addr_cpy_to+0x2a>
  2034e6:	f501 1120 	add.w	r1, r1, #2621440	; 0x280000
  2034ea:	3127      	adds	r1, #39	; 0x27
  2034ec:	2300      	movs	r3, #0
  2034ee:	4410      	add	r0, r2
  2034f0:	4293      	cmp	r3, r2
  2034f2:	da04      	bge.n	2034fe <ieee_addr_cpy_to+0x52>
  2034f4:	f811 4901 	ldrb.w	r4, [r1], #-1
  2034f8:	54c4      	strb	r4, [r0, r3]
  2034fa:	3301      	adds	r3, #1
  2034fc:	e7f8      	b.n	2034f0 <ieee_addr_cpy_to+0x44>
  2034fe:	bd30      	pop	{r4, r5, pc}
  203500:	4291      	cmp	r1, r2
  203502:	d004      	beq.n	20350e <ieee_addr_cpy_to+0x62>
  203504:	f811 0901 	ldrb.w	r0, [r1], #-1
  203508:	f803 0f01 	strb.w	r0, [r3, #1]!
  20350c:	e7f8      	b.n	203500 <ieee_addr_cpy_to+0x54>
  20350e:	bd30      	pop	{r4, r5, pc}
  203510:	0028002b 	.word	0x0028002b
  203514:	00280027 	.word	0x00280027
  203518:	0028002a 	.word	0x0028002a
  20351c:	00280029 	.word	0x00280029

00203520 <printf>:
  203520:	b40f      	push	{r0, r1, r2, r3}
  203522:	b507      	push	{r0, r1, r2, lr}
  203524:	aa04      	add	r2, sp, #16
  203526:	f852 1b04 	ldr.w	r1, [r2], #4
  20352a:	4804      	ldr	r0, [pc, #16]	; (20353c <printf+0x1c>)
  20352c:	9201      	str	r2, [sp, #4]
  20352e:	f000 f821 	bl	203574 <format_str_v>
  203532:	b003      	add	sp, #12
  203534:	f85d eb04 	ldr.w	lr, [sp], #4
  203538:	b004      	add	sp, #16
  20353a:	4770      	bx	lr
  20353c:	20000058 	.word	0x20000058

00203540 <fill_space>:
  203540:	b570      	push	{r4, r5, r6, lr}
  203542:	4605      	mov	r5, r0
  203544:	460c      	mov	r4, r1
  203546:	2c10      	cmp	r4, #16
  203548:	d907      	bls.n	20355a <fill_space+0x1a>
  20354a:	682b      	ldr	r3, [r5, #0]
  20354c:	2210      	movs	r2, #16
  20354e:	4908      	ldr	r1, [pc, #32]	; (203570 <fill_space+0x30>)
  203550:	6868      	ldr	r0, [r5, #4]
  203552:	4798      	blx	r3
  203554:	b950      	cbnz	r0, 20356c <fill_space+0x2c>
  203556:	3c10      	subs	r4, #16
  203558:	e7f5      	b.n	203546 <fill_space+0x6>
  20355a:	b134      	cbz	r4, 20356a <fill_space+0x2a>
  20355c:	682b      	ldr	r3, [r5, #0]
  20355e:	4622      	mov	r2, r4
  203560:	6868      	ldr	r0, [r5, #4]
  203562:	4903      	ldr	r1, [pc, #12]	; (203570 <fill_space+0x30>)
  203564:	e8bd 4070 	ldmia.w	sp!, {r4, r5, r6, lr}
  203568:	4718      	bx	r3
  20356a:	4620      	mov	r0, r4
  20356c:	bd70      	pop	{r4, r5, r6, pc}
  20356e:	bf00      	nop
  203570:	002065d0 	.word	0x002065d0

00203574 <format_str_v>:
  203574:	e92d 4ff0 	stmdb	sp!, {r4, r5, r6, r7, r8, r9, sl, fp, lr}
  203578:	4606      	mov	r6, r0
  20357a:	4615      	mov	r5, r2
  20357c:	b08f      	sub	sp, #60	; 0x3c
  20357e:	9106      	str	r1, [sp, #24]
  203580:	f04f 0b00 	mov.w	fp, #0
  203584:	9b06      	ldr	r3, [sp, #24]
  203586:	781b      	ldrb	r3, [r3, #0]
  203588:	b1cb      	cbz	r3, 2035be <format_str_v+0x4a>
  20358a:	9c06      	ldr	r4, [sp, #24]
  20358c:	4627      	mov	r7, r4
  20358e:	f817 3b01 	ldrb.w	r3, [r7], #1
  203592:	b11b      	cbz	r3, 20359c <format_str_v+0x28>
  203594:	2b25      	cmp	r3, #37	; 0x25
  203596:	d014      	beq.n	2035c2 <format_str_v+0x4e>
  203598:	463c      	mov	r4, r7
  20359a:	e7f7      	b.n	20358c <format_str_v+0x18>
  20359c:	9b06      	ldr	r3, [sp, #24]
  20359e:	42a3      	cmp	r3, r4
  2035a0:	d00d      	beq.n	2035be <format_str_v+0x4a>
  2035a2:	9b06      	ldr	r3, [sp, #24]
  2035a4:	9906      	ldr	r1, [sp, #24]
  2035a6:	ebc3 0804 	rsb	r8, r3, r4
  2035aa:	4642      	mov	r2, r8
  2035ac:	6833      	ldr	r3, [r6, #0]
  2035ae:	6870      	ldr	r0, [r6, #4]
  2035b0:	4798      	blx	r3
  2035b2:	2800      	cmp	r0, #0
  2035b4:	f040 831f 	bne.w	203bf6 <format_str_v+0x682>
  2035b8:	7823      	ldrb	r3, [r4, #0]
  2035ba:	44c3      	add	fp, r8
  2035bc:	b923      	cbnz	r3, 2035c8 <format_str_v+0x54>
  2035be:	4658      	mov	r0, fp
  2035c0:	e334      	b.n	203c2c <format_str_v+0x6b8>
  2035c2:	9b06      	ldr	r3, [sp, #24]
  2035c4:	42a3      	cmp	r3, r4
  2035c6:	d1ec      	bne.n	2035a2 <format_str_v+0x2e>
  2035c8:	7863      	ldrb	r3, [r4, #1]
  2035ca:	2b00      	cmp	r3, #0
  2035cc:	d0f7      	beq.n	2035be <format_str_v+0x4a>
  2035ce:	4639      	mov	r1, r7
  2035d0:	2400      	movs	r4, #0
  2035d2:	4608      	mov	r0, r1
  2035d4:	f810 3b01 	ldrb.w	r3, [r0], #1
  2035d8:	460a      	mov	r2, r1
  2035da:	2b2b      	cmp	r3, #43	; 0x2b
  2035dc:	d011      	beq.n	203602 <format_str_v+0x8e>
  2035de:	d806      	bhi.n	2035ee <format_str_v+0x7a>
  2035e0:	2b20      	cmp	r3, #32
  2035e2:	d011      	beq.n	203608 <format_str_v+0x94>
  2035e4:	2b23      	cmp	r3, #35	; 0x23
  2035e6:	d112      	bne.n	20360e <format_str_v+0x9a>
  2035e8:	f044 0408 	orr.w	r4, r4, #8
  2035ec:	e016      	b.n	20361c <format_str_v+0xa8>
  2035ee:	2b2d      	cmp	r3, #45	; 0x2d
  2035f0:	d004      	beq.n	2035fc <format_str_v+0x88>
  2035f2:	2b30      	cmp	r3, #48	; 0x30
  2035f4:	d10b      	bne.n	20360e <format_str_v+0x9a>
  2035f6:	f044 0410 	orr.w	r4, r4, #16
  2035fa:	e00f      	b.n	20361c <format_str_v+0xa8>
  2035fc:	f044 0401 	orr.w	r4, r4, #1
  203600:	e00c      	b.n	20361c <format_str_v+0xa8>
  203602:	f044 0406 	orr.w	r4, r4, #6
  203606:	e009      	b.n	20361c <format_str_v+0xa8>
  203608:	f044 0402 	orr.w	r4, r4, #2
  20360c:	e006      	b.n	20361c <format_str_v+0xa8>
  20360e:	f1a3 0731 	sub.w	r7, r3, #49	; 0x31
  203612:	2f08      	cmp	r7, #8
  203614:	d811      	bhi.n	20363a <format_str_v+0xc6>
  203616:	f04f 0800 	mov.w	r8, #0
  20361a:	e001      	b.n	203620 <format_str_v+0xac>
  20361c:	4601      	mov	r1, r0
  20361e:	e7d8      	b.n	2035d2 <format_str_v+0x5e>
  203620:	460a      	mov	r2, r1
  203622:	f811 3b01 	ldrb.w	r3, [r1], #1
  203626:	f1a3 0030 	sub.w	r0, r3, #48	; 0x30
  20362a:	2809      	cmp	r0, #9
  20362c:	d813      	bhi.n	203656 <format_str_v+0xe2>
  20362e:	220a      	movs	r2, #10
  203630:	fb02 3808 	mla	r8, r2, r8, r3
  203634:	f1a8 0830 	sub.w	r8, r8, #48	; 0x30
  203638:	e7f2      	b.n	203620 <format_str_v+0xac>
  20363a:	2b2a      	cmp	r3, #42	; 0x2a
  20363c:	d109      	bne.n	203652 <format_str_v+0xde>
  20363e:	682b      	ldr	r3, [r5, #0]
  203640:	4602      	mov	r2, r0
  203642:	2b00      	cmp	r3, #0
  203644:	f105 0504 	add.w	r5, r5, #4
  203648:	bfb8      	it	lt
  20364a:	f044 0401 	orrlt.w	r4, r4, #1
  20364e:	4698      	mov	r8, r3
  203650:	e001      	b.n	203656 <format_str_v+0xe2>
  203652:	f04f 0800 	mov.w	r8, #0
  203656:	7813      	ldrb	r3, [r2, #0]
  203658:	2b2e      	cmp	r3, #46	; 0x2e
  20365a:	d11a      	bne.n	203692 <format_str_v+0x11e>
  20365c:	7851      	ldrb	r1, [r2, #1]
  20365e:	1c53      	adds	r3, r2, #1
  203660:	f1a1 0030 	sub.w	r0, r1, #48	; 0x30
  203664:	2809      	cmp	r0, #9
  203666:	d80e      	bhi.n	203686 <format_str_v+0x112>
  203668:	4619      	mov	r1, r3
  20366a:	2700      	movs	r7, #0
  20366c:	780a      	ldrb	r2, [r1, #0]
  20366e:	460b      	mov	r3, r1
  203670:	f1a2 0030 	sub.w	r0, r2, #48	; 0x30
  203674:	2809      	cmp	r0, #9
  203676:	f101 0101 	add.w	r1, r1, #1
  20367a:	d80d      	bhi.n	203698 <format_str_v+0x124>
  20367c:	230a      	movs	r3, #10
  20367e:	fb03 2707 	mla	r7, r3, r7, r2
  203682:	3f30      	subs	r7, #48	; 0x30
  203684:	e7f2      	b.n	20366c <format_str_v+0xf8>
  203686:	292a      	cmp	r1, #42	; 0x2a
  203688:	d104      	bne.n	203694 <format_str_v+0x120>
  20368a:	682f      	ldr	r7, [r5, #0]
  20368c:	1c93      	adds	r3, r2, #2
  20368e:	3504      	adds	r5, #4
  203690:	e002      	b.n	203698 <format_str_v+0x124>
  203692:	4613      	mov	r3, r2
  203694:	f04f 37ff 	mov.w	r7, #4294967295	; 0xffffffff
  203698:	781a      	ldrb	r2, [r3, #0]
  20369a:	2a6c      	cmp	r2, #108	; 0x6c
  20369c:	d109      	bne.n	2036b2 <format_str_v+0x13e>
  20369e:	785a      	ldrb	r2, [r3, #1]
  2036a0:	2a6c      	cmp	r2, #108	; 0x6c
  2036a2:	d102      	bne.n	2036aa <format_str_v+0x136>
  2036a4:	f044 0480 	orr.w	r4, r4, #128	; 0x80
  2036a8:	e00a      	b.n	2036c0 <format_str_v+0x14c>
  2036aa:	3301      	adds	r3, #1
  2036ac:	f044 0460 	orr.w	r4, r4, #96	; 0x60
  2036b0:	e00b      	b.n	2036ca <format_str_v+0x156>
  2036b2:	2a68      	cmp	r2, #104	; 0x68
  2036b4:	d109      	bne.n	2036ca <format_str_v+0x156>
  2036b6:	785a      	ldrb	r2, [r3, #1]
  2036b8:	2a68      	cmp	r2, #104	; 0x68
  2036ba:	d103      	bne.n	2036c4 <format_str_v+0x150>
  2036bc:	f044 0420 	orr.w	r4, r4, #32
  2036c0:	3302      	adds	r3, #2
  2036c2:	e002      	b.n	2036ca <format_str_v+0x156>
  2036c4:	3301      	adds	r3, #1
  2036c6:	f044 0440 	orr.w	r4, r4, #64	; 0x40
  2036ca:	781a      	ldrb	r2, [r3, #0]
  2036cc:	2a64      	cmp	r2, #100	; 0x64
  2036ce:	d03c      	beq.n	20374a <format_str_v+0x1d6>
  2036d0:	d81f      	bhi.n	203712 <format_str_v+0x19e>
  2036d2:	2a46      	cmp	r2, #70	; 0x46
  2036d4:	d048      	beq.n	203768 <format_str_v+0x1f4>
  2036d6:	d80d      	bhi.n	2036f4 <format_str_v+0x180>
  2036d8:	2a25      	cmp	r2, #37	; 0x25
  2036da:	d05a      	beq.n	203792 <format_str_v+0x21e>
  2036dc:	d803      	bhi.n	2036e6 <format_str_v+0x172>
  2036de:	2a00      	cmp	r2, #0
  2036e0:	f43f af6d 	beq.w	2035be <format_str_v+0x4a>
  2036e4:	e057      	b.n	203796 <format_str_v+0x222>
  2036e6:	2a41      	cmp	r2, #65	; 0x41
  2036e8:	d04a      	beq.n	203780 <format_str_v+0x20c>
  2036ea:	2a45      	cmp	r2, #69	; 0x45
  2036ec:	d153      	bne.n	203796 <format_str_v+0x222>
  2036ee:	f444 4442 	orr.w	r4, r4, #49664	; 0xc200
  2036f2:	e050      	b.n	203796 <format_str_v+0x222>
  2036f4:	2a58      	cmp	r2, #88	; 0x58
  2036f6:	d031      	beq.n	20375c <format_str_v+0x1e8>
  2036f8:	d804      	bhi.n	203704 <format_str_v+0x190>
  2036fa:	2a47      	cmp	r2, #71	; 0x47
  2036fc:	d14b      	bne.n	203796 <format_str_v+0x222>
  2036fe:	f444 34a1 	orr.w	r4, r4, #82432	; 0x14200
  203702:	e048      	b.n	203796 <format_str_v+0x222>
  203704:	2a61      	cmp	r2, #97	; 0x61
  203706:	d038      	beq.n	20377a <format_str_v+0x206>
  203708:	2a63      	cmp	r2, #99	; 0x63
  20370a:	d144      	bne.n	203796 <format_str_v+0x222>
  20370c:	f444 64a0 	orr.w	r4, r4, #1280	; 0x500
  203710:	e041      	b.n	203796 <format_str_v+0x222>
  203712:	2a6e      	cmp	r2, #110	; 0x6e
  203714:	d03a      	beq.n	20378c <format_str_v+0x218>
  203716:	d807      	bhi.n	203728 <format_str_v+0x1b4>
  203718:	2a66      	cmp	r2, #102	; 0x66
  20371a:	d022      	beq.n	203762 <format_str_v+0x1ee>
  20371c:	d327      	bcc.n	20376e <format_str_v+0x1fa>
  20371e:	2a67      	cmp	r2, #103	; 0x67
  203720:	d028      	beq.n	203774 <format_str_v+0x200>
  203722:	2a69      	cmp	r2, #105	; 0x69
  203724:	d011      	beq.n	20374a <format_str_v+0x1d6>
  203726:	e036      	b.n	203796 <format_str_v+0x222>
  203728:	2a73      	cmp	r2, #115	; 0x73
  20372a:	d02c      	beq.n	203786 <format_str_v+0x212>
  20372c:	d806      	bhi.n	20373c <format_str_v+0x1c8>
  20372e:	2a6f      	cmp	r2, #111	; 0x6f
  203730:	d011      	beq.n	203756 <format_str_v+0x1e2>
  203732:	2a70      	cmp	r2, #112	; 0x70
  203734:	d12f      	bne.n	203796 <format_str_v+0x222>
  203736:	f444 7440 	orr.w	r4, r4, #768	; 0x300
  20373a:	e02c      	b.n	203796 <format_str_v+0x222>
  20373c:	2a75      	cmp	r2, #117	; 0x75
  20373e:	d007      	beq.n	203750 <format_str_v+0x1dc>
  203740:	2a78      	cmp	r2, #120	; 0x78
  203742:	d128      	bne.n	203796 <format_str_v+0x222>
  203744:	f444 54c8 	orr.w	r4, r4, #6400	; 0x1900
  203748:	e025      	b.n	203796 <format_str_v+0x222>
  20374a:	f444 5424 	orr.w	r4, r4, #10496	; 0x2900
  20374e:	e022      	b.n	203796 <format_str_v+0x222>
  203750:	f444 6410 	orr.w	r4, r4, #2304	; 0x900
  203754:	e01f      	b.n	203796 <format_str_v+0x222>
  203756:	f444 5488 	orr.w	r4, r4, #4352	; 0x1100
  20375a:	e01c      	b.n	203796 <format_str_v+0x222>
  20375c:	f444 44b2 	orr.w	r4, r4, #22784	; 0x5900
  203760:	e019      	b.n	203796 <format_str_v+0x222>
  203762:	f444 7400 	orr.w	r4, r4, #512	; 0x200
  203766:	e016      	b.n	203796 <format_str_v+0x222>
  203768:	f444 4484 	orr.w	r4, r4, #16896	; 0x4200
  20376c:	e013      	b.n	203796 <format_str_v+0x222>
  20376e:	f444 4402 	orr.w	r4, r4, #33280	; 0x8200
  203772:	e010      	b.n	203796 <format_str_v+0x222>
  203774:	f444 3481 	orr.w	r4, r4, #66048	; 0x10200
  203778:	e00d      	b.n	203796 <format_str_v+0x222>
  20377a:	f444 34c1 	orr.w	r4, r4, #98816	; 0x18200
  20377e:	e00a      	b.n	203796 <format_str_v+0x222>
  203780:	f444 34e1 	orr.w	r4, r4, #115200	; 0x1c200
  203784:	e007      	b.n	203796 <format_str_v+0x222>
  203786:	f444 6480 	orr.w	r4, r4, #1024	; 0x400
  20378a:	e004      	b.n	203796 <format_str_v+0x222>
  20378c:	f444 64e0 	orr.w	r4, r4, #1792	; 0x700
  203790:	e001      	b.n	203796 <format_str_v+0x222>
  203792:	f444 64c0 	orr.w	r4, r4, #1536	; 0x600
  203796:	3301      	adds	r3, #1
  203798:	9306      	str	r3, [sp, #24]
  20379a:	f404 63e0 	and.w	r3, r4, #1792	; 0x700
  20379e:	f5b3 6f80 	cmp.w	r3, #1024	; 0x400
  2037a2:	f000 818f 	beq.w	203ac4 <format_str_v+0x550>
  2037a6:	d813      	bhi.n	2037d0 <format_str_v+0x25c>
  2037a8:	f5b3 7f80 	cmp.w	r3, #256	; 0x100
  2037ac:	d027      	beq.n	2037fe <format_str_v+0x28a>
  2037ae:	f5b3 7f40 	cmp.w	r3, #768	; 0x300
  2037b2:	f47f aee7 	bne.w	203584 <format_str_v+0x10>
  2037b6:	4bae      	ldr	r3, [pc, #696]	; (203a70 <format_str_v+0x4fc>)
  2037b8:	f414 4f80 	tst.w	r4, #16384	; 0x4000
  2037bc:	4aad      	ldr	r2, [pc, #692]	; (203a74 <format_str_v+0x500>)
  2037be:	bf18      	it	ne
  2037c0:	461a      	movne	r2, r3
  2037c2:	f10d 0333 	add.w	r3, sp, #51	; 0x33
  2037c6:	6828      	ldr	r0, [r5, #0]
  2037c8:	2100      	movs	r1, #0
  2037ca:	3504      	adds	r5, #4
  2037cc:	461f      	mov	r7, r3
  2037ce:	e1b5      	b.n	203b3c <format_str_v+0x5c8>
  2037d0:	f5b3 6fc0 	cmp.w	r3, #1536	; 0x600
  2037d4:	d008      	beq.n	2037e8 <format_str_v+0x274>
  2037d6:	f5b3 6fe0 	cmp.w	r3, #1792	; 0x700
  2037da:	f000 8222 	beq.w	203c22 <format_str_v+0x6ae>
  2037de:	f5b3 6fa0 	cmp.w	r3, #1280	; 0x500
  2037e2:	f47f aecf 	bne.w	203584 <format_str_v+0x10>
  2037e6:	e1f2      	b.n	203bce <format_str_v+0x65a>
  2037e8:	6833      	ldr	r3, [r6, #0]
  2037ea:	2201      	movs	r2, #1
  2037ec:	49a2      	ldr	r1, [pc, #648]	; (203a78 <format_str_v+0x504>)
  2037ee:	6870      	ldr	r0, [r6, #4]
  2037f0:	4798      	blx	r3
  2037f2:	2800      	cmp	r0, #0
  2037f4:	f040 81ff 	bne.w	203bf6 <format_str_v+0x682>
  2037f8:	f10b 0b01 	add.w	fp, fp, #1
  2037fc:	e6c2      	b.n	203584 <format_str_v+0x10>
  2037fe:	2f00      	cmp	r7, #0
  203800:	bfac      	ite	ge
  203802:	f024 0410 	bicge.w	r4, r4, #16
  203806:	2701      	movlt	r7, #1
  203808:	f414 5300 	ands.w	r3, r4, #8192	; 0x2000
  20380c:	9307      	str	r3, [sp, #28]
  20380e:	f004 03e0 	and.w	r3, r4, #224	; 0xe0
  203812:	d02e      	beq.n	203872 <format_str_v+0x2fe>
  203814:	2b40      	cmp	r3, #64	; 0x40
  203816:	d012      	beq.n	20383e <format_str_v+0x2ca>
  203818:	d805      	bhi.n	203826 <format_str_v+0x2b2>
  20381a:	b1ab      	cbz	r3, 203848 <format_str_v+0x2d4>
  20381c:	2b20      	cmp	r3, #32
  20381e:	d121      	bne.n	203864 <format_str_v+0x2f0>
  203820:	f995 2000 	ldrsb.w	r2, [r5]
  203824:	e00d      	b.n	203842 <format_str_v+0x2ce>
  203826:	2b60      	cmp	r3, #96	; 0x60
  203828:	d00e      	beq.n	203848 <format_str_v+0x2d4>
  20382a:	2b80      	cmp	r3, #128	; 0x80
  20382c:	d11a      	bne.n	203864 <format_str_v+0x2f0>
  20382e:	3507      	adds	r5, #7
  203830:	f025 0307 	bic.w	r3, r5, #7
  203834:	f103 0508 	add.w	r5, r3, #8
  203838:	e9d3 2300 	ldrd	r2, r3, [r3]
  20383c:	e007      	b.n	20384e <format_str_v+0x2da>
  20383e:	f9b5 2000 	ldrsh.w	r2, [r5]
  203842:	17d3      	asrs	r3, r2, #31
  203844:	3504      	adds	r5, #4
  203846:	e002      	b.n	20384e <format_str_v+0x2da>
  203848:	682a      	ldr	r2, [r5, #0]
  20384a:	3504      	adds	r5, #4
  20384c:	17d3      	asrs	r3, r2, #31
  20384e:	2a00      	cmp	r2, #0
  203850:	f173 0100 	sbcs.w	r1, r3, #0
  203854:	da08      	bge.n	203868 <format_str_v+0x2f4>
  203856:	4252      	negs	r2, r2
  203858:	eb63 0343 	sbc.w	r3, r3, r3, lsl #1
  20385c:	e9cd 2300 	strd	r2, r3, [sp]
  203860:	2301      	movs	r3, #1
  203862:	e004      	b.n	20386e <format_str_v+0x2fa>
  203864:	2200      	movs	r2, #0
  203866:	2300      	movs	r3, #0
  203868:	e9cd 2300 	strd	r2, r3, [sp]
  20386c:	2300      	movs	r3, #0
  20386e:	9305      	str	r3, [sp, #20]
  203870:	e029      	b.n	2038c6 <format_str_v+0x352>
  203872:	2b40      	cmp	r3, #64	; 0x40
  203874:	d013      	beq.n	20389e <format_str_v+0x32a>
  203876:	d804      	bhi.n	203882 <format_str_v+0x30e>
  203878:	b1bb      	cbz	r3, 2038aa <format_str_v+0x336>
  20387a:	2b20      	cmp	r3, #32
  20387c:	d11d      	bne.n	2038ba <format_str_v+0x346>
  20387e:	782a      	ldrb	r2, [r5, #0]
  203880:	e00e      	b.n	2038a0 <format_str_v+0x32c>
  203882:	2b60      	cmp	r3, #96	; 0x60
  203884:	d011      	beq.n	2038aa <format_str_v+0x336>
  203886:	2b80      	cmp	r3, #128	; 0x80
  203888:	d117      	bne.n	2038ba <format_str_v+0x346>
  20388a:	3507      	adds	r5, #7
  20388c:	f025 0307 	bic.w	r3, r5, #7
  203890:	f103 0508 	add.w	r5, r3, #8
  203894:	e9d3 2300 	ldrd	r2, r3, [r3]
  203898:	e9cd 2300 	strd	r2, r3, [sp]
  20389c:	e00b      	b.n	2038b6 <format_str_v+0x342>
  20389e:	882a      	ldrh	r2, [r5, #0]
  2038a0:	2300      	movs	r3, #0
  2038a2:	e9cd 2300 	strd	r2, r3, [sp]
  2038a6:	3504      	adds	r5, #4
  2038a8:	e005      	b.n	2038b6 <format_str_v+0x342>
  2038aa:	682b      	ldr	r3, [r5, #0]
  2038ac:	2200      	movs	r2, #0
  2038ae:	4619      	mov	r1, r3
  2038b0:	e9cd 1200 	strd	r1, r2, [sp]
  2038b4:	3504      	adds	r5, #4
  2038b6:	9b07      	ldr	r3, [sp, #28]
  2038b8:	e7d9      	b.n	20386e <format_str_v+0x2fa>
  2038ba:	2300      	movs	r3, #0
  2038bc:	9305      	str	r3, [sp, #20]
  2038be:	2200      	movs	r2, #0
  2038c0:	2300      	movs	r3, #0
  2038c2:	e9cd 2300 	strd	r2, r3, [sp]
  2038c6:	f404 53c0 	and.w	r3, r4, #6144	; 0x1800
  2038ca:	f5b3 5f80 	cmp.w	r3, #4096	; 0x1000
  2038ce:	d00c      	beq.n	2038ea <format_str_v+0x376>
  2038d0:	f5b3 5fc0 	cmp.w	r3, #6144	; 0x1800
  2038d4:	d033      	beq.n	20393e <format_str_v+0x3ca>
  2038d6:	f5b3 6f00 	cmp.w	r3, #2048	; 0x800
  2038da:	d14f      	bne.n	20397c <format_str_v+0x408>
  2038dc:	e9dd 2300 	ldrd	r2, r3, [sp]
  2038e0:	f10d 0936 	add.w	r9, sp, #54	; 0x36
  2038e4:	e9cd 2302 	strd	r2, r3, [sp, #8]
  2038e8:	e004      	b.n	2038f4 <format_str_v+0x380>
  2038ea:	e9dd 2300 	ldrd	r2, r3, [sp]
  2038ee:	f10d 0936 	add.w	r9, sp, #54	; 0x36
  2038f2:	e015      	b.n	203920 <format_str_v+0x3ac>
  2038f4:	e9dd 2302 	ldrd	r2, r3, [sp, #8]
  2038f8:	4313      	orrs	r3, r2
  2038fa:	d03a      	beq.n	203972 <format_str_v+0x3fe>
  2038fc:	e9dd 0102 	ldrd	r0, r1, [sp, #8]
  203900:	220a      	movs	r2, #10
  203902:	2300      	movs	r3, #0
  203904:	f001 fe02 	bl	20550c <__aeabi_uldivmod>
  203908:	e9dd 0102 	ldrd	r0, r1, [sp, #8]
  20390c:	3230      	adds	r2, #48	; 0x30
  20390e:	f809 2d01 	strb.w	r2, [r9, #-1]!
  203912:	2300      	movs	r3, #0
  203914:	220a      	movs	r2, #10
  203916:	f001 fdf9 	bl	20550c <__aeabi_uldivmod>
  20391a:	e9cd 0102 	strd	r0, r1, [sp, #8]
  20391e:	e7e9      	b.n	2038f4 <format_str_v+0x380>
  203920:	ea52 0103 	orrs.w	r1, r2, r3
  203924:	d025      	beq.n	203972 <format_str_v+0x3fe>
  203926:	f002 0107 	and.w	r1, r2, #7
  20392a:	3130      	adds	r1, #48	; 0x30
  20392c:	f809 1d01 	strb.w	r1, [r9, #-1]!
  203930:	08d1      	lsrs	r1, r2, #3
  203932:	ea41 7143 	orr.w	r1, r1, r3, lsl #29
  203936:	08d8      	lsrs	r0, r3, #3
  203938:	460a      	mov	r2, r1
  20393a:	4603      	mov	r3, r0
  20393c:	e7f0      	b.n	203920 <format_str_v+0x3ac>
  20393e:	4b4c      	ldr	r3, [pc, #304]	; (203a70 <format_str_v+0x4fc>)
  203940:	f414 4f80 	tst.w	r4, #16384	; 0x4000
  203944:	f10d 0936 	add.w	r9, sp, #54	; 0x36
  203948:	494a      	ldr	r1, [pc, #296]	; (203a74 <format_str_v+0x500>)
  20394a:	bf18      	it	ne
  20394c:	4619      	movne	r1, r3
  20394e:	e9dd 2300 	ldrd	r2, r3, [sp]
  203952:	ea52 0003 	orrs.w	r0, r2, r3
  203956:	d00c      	beq.n	203972 <format_str_v+0x3fe>
  203958:	f002 000f 	and.w	r0, r2, #15
  20395c:	5c08      	ldrb	r0, [r1, r0]
  20395e:	ea4f 1e13 	mov.w	lr, r3, lsr #4
  203962:	f809 0d01 	strb.w	r0, [r9, #-1]!
  203966:	0910      	lsrs	r0, r2, #4
  203968:	ea40 7003 	orr.w	r0, r0, r3, lsl #28
  20396c:	4602      	mov	r2, r0
  20396e:	4673      	mov	r3, lr
  203970:	e7ef      	b.n	203952 <format_str_v+0x3de>
  203972:	f10d 0336 	add.w	r3, sp, #54	; 0x36
  203976:	ebc9 0303 	rsb	r3, r9, r3
  20397a:	e002      	b.n	203982 <format_str_v+0x40e>
  20397c:	f10d 0936 	add.w	r9, sp, #54	; 0x36
  203980:	2300      	movs	r3, #0
  203982:	9302      	str	r3, [sp, #8]
  203984:	9b02      	ldr	r3, [sp, #8]
  203986:	f641 0208 	movw	r2, #6152	; 0x1808
  20398a:	42bb      	cmp	r3, r7
  20398c:	bf38      	it	cc
  20398e:	1aff      	subcc	r7, r7, r3
  203990:	f241 0308 	movw	r3, #4104	; 0x1008
  203994:	ea02 0204 	and.w	r2, r2, r4
  203998:	bf28      	it	cs
  20399a:	2700      	movcs	r7, #0
  20399c:	429a      	cmp	r2, r3
  20399e:	d102      	bne.n	2039a6 <format_str_v+0x432>
  2039a0:	2f00      	cmp	r7, #0
  2039a2:	bf08      	it	eq
  2039a4:	2701      	moveq	r7, #1
  2039a6:	f641 0108 	movw	r1, #6152	; 0x1808
  2039aa:	9b02      	ldr	r3, [sp, #8]
  2039ac:	428a      	cmp	r2, r1
  2039ae:	eb03 0007 	add.w	r0, r3, r7
  2039b2:	d10d      	bne.n	2039d0 <format_str_v+0x45c>
  2039b4:	e9dd 2300 	ldrd	r2, r3, [sp]
  2039b8:	4313      	orrs	r3, r2
  2039ba:	d009      	beq.n	2039d0 <format_str_v+0x45c>
  2039bc:	4a2f      	ldr	r2, [pc, #188]	; (203a7c <format_str_v+0x508>)
  2039be:	4930      	ldr	r1, [pc, #192]	; (203a80 <format_str_v+0x50c>)
  2039c0:	f414 4f80 	tst.w	r4, #16384	; 0x4000
  2039c4:	f04f 0a02 	mov.w	sl, #2
  2039c8:	bf0c      	ite	eq
  2039ca:	460b      	moveq	r3, r1
  2039cc:	4613      	movne	r3, r2
  2039ce:	e002      	b.n	2039d6 <format_str_v+0x462>
  2039d0:	f04f 0a00 	mov.w	sl, #0
  2039d4:	4653      	mov	r3, sl
  2039d6:	9a07      	ldr	r2, [sp, #28]
  2039d8:	b19a      	cbz	r2, 203a02 <format_str_v+0x48e>
  2039da:	9a05      	ldr	r2, [sp, #20]
  2039dc:	b952      	cbnz	r2, 2039f4 <format_str_v+0x480>
  2039de:	f004 0206 	and.w	r2, r4, #6
  2039e2:	2a02      	cmp	r2, #2
  2039e4:	d00a      	beq.n	2039fc <format_str_v+0x488>
  2039e6:	2a06      	cmp	r2, #6
  2039e8:	4a26      	ldr	r2, [pc, #152]	; (203a84 <format_str_v+0x510>)
  2039ea:	bf04      	itt	eq
  2039ec:	f04f 0a01 	moveq.w	sl, #1
  2039f0:	4613      	moveq	r3, r2
  2039f2:	e006      	b.n	203a02 <format_str_v+0x48e>
  2039f4:	f04f 0a01 	mov.w	sl, #1
  2039f8:	4b23      	ldr	r3, [pc, #140]	; (203a88 <format_str_v+0x514>)
  2039fa:	e002      	b.n	203a02 <format_str_v+0x48e>
  2039fc:	4b23      	ldr	r3, [pc, #140]	; (203a8c <format_str_v+0x518>)
  2039fe:	f04f 0a01 	mov.w	sl, #1
  203a02:	eb0a 0200 	add.w	r2, sl, r0
  203a06:	4590      	cmp	r8, r2
  203a08:	bf8c      	ite	hi
  203a0a:	ebc2 0808 	rsbhi	r8, r2, r8
  203a0e:	f04f 0800 	movls.w	r8, #0
  203a12:	f014 0201 	ands.w	r2, r4, #1
  203a16:	9200      	str	r2, [sp, #0]
  203a18:	d10d      	bne.n	203a36 <format_str_v+0x4c2>
  203a1a:	06e1      	lsls	r1, r4, #27
  203a1c:	d502      	bpl.n	203a24 <format_str_v+0x4b0>
  203a1e:	4447      	add	r7, r8
  203a20:	4690      	mov	r8, r2
  203a22:	e008      	b.n	203a36 <format_str_v+0x4c2>
  203a24:	4641      	mov	r1, r8
  203a26:	4630      	mov	r0, r6
  203a28:	9305      	str	r3, [sp, #20]
  203a2a:	f7ff fd89 	bl	203540 <fill_space>
  203a2e:	9b05      	ldr	r3, [sp, #20]
  203a30:	2800      	cmp	r0, #0
  203a32:	f040 80e0 	bne.w	203bf6 <format_str_v+0x682>
  203a36:	f1ba 0f00 	cmp.w	sl, #0
  203a3a:	d007      	beq.n	203a4c <format_str_v+0x4d8>
  203a3c:	6834      	ldr	r4, [r6, #0]
  203a3e:	4652      	mov	r2, sl
  203a40:	4619      	mov	r1, r3
  203a42:	6870      	ldr	r0, [r6, #4]
  203a44:	47a0      	blx	r4
  203a46:	2800      	cmp	r0, #0
  203a48:	f040 80d5 	bne.w	203bf6 <format_str_v+0x682>
  203a4c:	9b02      	ldr	r3, [sp, #8]
  203a4e:	eb03 040b 	add.w	r4, r3, fp
  203a52:	46bb      	mov	fp, r7
  203a54:	f1bb 0f10 	cmp.w	fp, #16
  203a58:	6833      	ldr	r3, [r6, #0]
  203a5a:	d91b      	bls.n	203a94 <format_str_v+0x520>
  203a5c:	2210      	movs	r2, #16
  203a5e:	490c      	ldr	r1, [pc, #48]	; (203a90 <format_str_v+0x51c>)
  203a60:	6870      	ldr	r0, [r6, #4]
  203a62:	4798      	blx	r3
  203a64:	2800      	cmp	r0, #0
  203a66:	f040 80c6 	bne.w	203bf6 <format_str_v+0x682>
  203a6a:	f1ab 0b10 	sub.w	fp, fp, #16
  203a6e:	e7f1      	b.n	203a54 <format_str_v+0x4e0>
  203a70:	0020659b 	.word	0x0020659b
  203a74:	002065ac 	.word	0x002065ac
  203a78:	002065ce 	.word	0x002065ce
  203a7c:	002065c0 	.word	0x002065c0
  203a80:	002065bd 	.word	0x002065bd
  203a84:	002065c5 	.word	0x002065c5
  203a88:	002065c3 	.word	0x002065c3
  203a8c:	0020657a 	.word	0x0020657a
  203a90:	002065e0 	.word	0x002065e0
  203a94:	f1bb 0f00 	cmp.w	fp, #0
  203a98:	d006      	beq.n	203aa8 <format_str_v+0x534>
  203a9a:	465a      	mov	r2, fp
  203a9c:	4965      	ldr	r1, [pc, #404]	; (203c34 <format_str_v+0x6c0>)
  203a9e:	6870      	ldr	r0, [r6, #4]
  203aa0:	4798      	blx	r3
  203aa2:	2800      	cmp	r0, #0
  203aa4:	f040 80a7 	bne.w	203bf6 <format_str_v+0x682>
  203aa8:	6833      	ldr	r3, [r6, #0]
  203aaa:	9a02      	ldr	r2, [sp, #8]
  203aac:	4649      	mov	r1, r9
  203aae:	6870      	ldr	r0, [r6, #4]
  203ab0:	4454      	add	r4, sl
  203ab2:	4798      	blx	r3
  203ab4:	2800      	cmp	r0, #0
  203ab6:	f040 809e 	bne.w	203bf6 <format_str_v+0x682>
  203aba:	9b00      	ldr	r3, [sp, #0]
  203abc:	443c      	add	r4, r7
  203abe:	2b00      	cmp	r3, #0
  203ac0:	d039      	beq.n	203b36 <format_str_v+0x5c2>
  203ac2:	e032      	b.n	203b2a <format_str_v+0x5b6>
  203ac4:	f8d5 9000 	ldr.w	r9, [r5]
  203ac8:	3504      	adds	r5, #4
  203aca:	f1b9 0f00 	cmp.w	r9, #0
  203ace:	d00a      	beq.n	203ae6 <format_str_v+0x572>
  203ad0:	46ca      	mov	sl, r9
  203ad2:	f89a 3000 	ldrb.w	r3, [sl]
  203ad6:	f10a 0201 	add.w	r2, sl, #1
  203ada:	b10b      	cbz	r3, 203ae0 <format_str_v+0x56c>
  203adc:	4692      	mov	sl, r2
  203ade:	e7f8      	b.n	203ad2 <format_str_v+0x55e>
  203ae0:	ebc9 0a0a 	rsb	sl, r9, sl
  203ae4:	e003      	b.n	203aee <format_str_v+0x57a>
  203ae6:	f8df 9150 	ldr.w	r9, [pc, #336]	; 203c38 <format_str_v+0x6c4>
  203aea:	f04f 0a06 	mov.w	sl, #6
  203aee:	2f00      	cmp	r7, #0
  203af0:	db02      	blt.n	203af8 <format_str_v+0x584>
  203af2:	45ba      	cmp	sl, r7
  203af4:	bf28      	it	cs
  203af6:	46ba      	movcs	sl, r7
  203af8:	45d0      	cmp	r8, sl
  203afa:	bf8c      	ite	hi
  203afc:	ebca 0808 	rsbhi	r8, sl, r8
  203b00:	f04f 0800 	movls.w	r8, #0
  203b04:	f014 0701 	ands.w	r7, r4, #1
  203b08:	d105      	bne.n	203b16 <format_str_v+0x5a2>
  203b0a:	4641      	mov	r1, r8
  203b0c:	4630      	mov	r0, r6
  203b0e:	f7ff fd17 	bl	203540 <fill_space>
  203b12:	2800      	cmp	r0, #0
  203b14:	d16f      	bne.n	203bf6 <format_str_v+0x682>
  203b16:	6833      	ldr	r3, [r6, #0]
  203b18:	4652      	mov	r2, sl
  203b1a:	4649      	mov	r1, r9
  203b1c:	6870      	ldr	r0, [r6, #4]
  203b1e:	4798      	blx	r3
  203b20:	2800      	cmp	r0, #0
  203b22:	d168      	bne.n	203bf6 <format_str_v+0x682>
  203b24:	eb0a 040b 	add.w	r4, sl, fp
  203b28:	b12f      	cbz	r7, 203b36 <format_str_v+0x5c2>
  203b2a:	4641      	mov	r1, r8
  203b2c:	4630      	mov	r0, r6
  203b2e:	f7ff fd07 	bl	203540 <fill_space>
  203b32:	2800      	cmp	r0, #0
  203b34:	d15f      	bne.n	203bf6 <format_str_v+0x682>
  203b36:	eb08 0b04 	add.w	fp, r8, r4
  203b3a:	e523      	b.n	203584 <format_str_v+0x10>
  203b3c:	ea50 0e01 	orrs.w	lr, r0, r1
  203b40:	d00e      	beq.n	203b60 <format_str_v+0x5ec>
  203b42:	f000 0e0f 	and.w	lr, r0, #15
  203b46:	f812 e00e 	ldrb.w	lr, [r2, lr]
  203b4a:	ea4f 1c11 	mov.w	ip, r1, lsr #4
  203b4e:	f803 ed01 	strb.w	lr, [r3, #-1]!
  203b52:	ea4f 1e10 	mov.w	lr, r0, lsr #4
  203b56:	ea4e 7e01 	orr.w	lr, lr, r1, lsl #28
  203b5a:	4670      	mov	r0, lr
  203b5c:	4661      	mov	r1, ip
  203b5e:	e7ed      	b.n	203b3c <format_str_v+0x5c8>
  203b60:	1aff      	subs	r7, r7, r3
  203b62:	bf02      	ittt	eq
  203b64:	2230      	moveq	r2, #48	; 0x30
  203b66:	2701      	moveq	r7, #1
  203b68:	f803 2c01 	strbeq.w	r2, [r3, #-1]
  203b6c:	f107 0703 	add.w	r7, r7, #3
  203b70:	bf08      	it	eq
  203b72:	f103 33ff 	addeq.w	r3, r3, #4294967295	; 0xffffffff
  203b76:	2278      	movs	r2, #120	; 0x78
  203b78:	45b8      	cmp	r8, r7
  203b7a:	f803 2c01 	strb.w	r2, [r3, #-1]
  203b7e:	f04f 0230 	mov.w	r2, #48	; 0x30
  203b82:	f803 2c02 	strb.w	r2, [r3, #-2]
  203b86:	bf88      	it	hi
  203b88:	ebc7 0808 	rsbhi	r8, r7, r8
  203b8c:	f04f 0223 	mov.w	r2, #35	; 0x23
  203b90:	bf98      	it	ls
  203b92:	f04f 0800 	movls.w	r8, #0
  203b96:	f014 0401 	ands.w	r4, r4, #1
  203b9a:	f1a3 0903 	sub.w	r9, r3, #3
  203b9e:	f803 2c03 	strb.w	r2, [r3, #-3]
  203ba2:	d104      	bne.n	203bae <format_str_v+0x63a>
  203ba4:	4641      	mov	r1, r8
  203ba6:	4630      	mov	r0, r6
  203ba8:	f7ff fcca 	bl	203540 <fill_space>
  203bac:	bb18      	cbnz	r0, 203bf6 <format_str_v+0x682>
  203bae:	6833      	ldr	r3, [r6, #0]
  203bb0:	463a      	mov	r2, r7
  203bb2:	4649      	mov	r1, r9
  203bb4:	6870      	ldr	r0, [r6, #4]
  203bb6:	4798      	blx	r3
  203bb8:	b9e8      	cbnz	r0, 203bf6 <format_str_v+0x682>
  203bba:	445f      	add	r7, fp
  203bbc:	b124      	cbz	r4, 203bc8 <format_str_v+0x654>
  203bbe:	4641      	mov	r1, r8
  203bc0:	4630      	mov	r0, r6
  203bc2:	f7ff fcbd 	bl	203540 <fill_space>
  203bc6:	b9b0      	cbnz	r0, 203bf6 <format_str_v+0x682>
  203bc8:	eb08 0b07 	add.w	fp, r8, r7
  203bcc:	e4da      	b.n	203584 <format_str_v+0x10>
  203bce:	f1b8 0f01 	cmp.w	r8, #1
  203bd2:	682b      	ldr	r3, [r5, #0]
  203bd4:	bf8c      	ite	hi
  203bd6:	f108 38ff 	addhi.w	r8, r8, #4294967295	; 0xffffffff
  203bda:	f04f 0800 	movls.w	r8, #0
  203bde:	f014 0401 	ands.w	r4, r4, #1
  203be2:	f105 0504 	add.w	r5, r5, #4
  203be6:	f88d 3020 	strb.w	r3, [sp, #32]
  203bea:	d108      	bne.n	203bfe <format_str_v+0x68a>
  203bec:	4641      	mov	r1, r8
  203bee:	4630      	mov	r0, r6
  203bf0:	f7ff fca6 	bl	203540 <fill_space>
  203bf4:	b110      	cbz	r0, 203bfc <format_str_v+0x688>
  203bf6:	f04f 30ff 	mov.w	r0, #4294967295	; 0xffffffff
  203bfa:	e017      	b.n	203c2c <format_str_v+0x6b8>
  203bfc:	44c3      	add	fp, r8
  203bfe:	6833      	ldr	r3, [r6, #0]
  203c00:	2201      	movs	r2, #1
  203c02:	a908      	add	r1, sp, #32
  203c04:	6870      	ldr	r0, [r6, #4]
  203c06:	4798      	blx	r3
  203c08:	2800      	cmp	r0, #0
  203c0a:	d1f4      	bne.n	203bf6 <format_str_v+0x682>
  203c0c:	f108 0701 	add.w	r7, r8, #1
  203c10:	b12c      	cbz	r4, 203c1e <format_str_v+0x6aa>
  203c12:	4641      	mov	r1, r8
  203c14:	4630      	mov	r0, r6
  203c16:	f7ff fc93 	bl	203540 <fill_space>
  203c1a:	2800      	cmp	r0, #0
  203c1c:	d1eb      	bne.n	203bf6 <format_str_v+0x682>
  203c1e:	44bb      	add	fp, r7
  203c20:	e4b0      	b.n	203584 <format_str_v+0x10>
  203c22:	682b      	ldr	r3, [r5, #0]
  203c24:	3504      	adds	r5, #4
  203c26:	f8c3 b000 	str.w	fp, [r3]
  203c2a:	e4ab      	b.n	203584 <format_str_v+0x10>
  203c2c:	b00f      	add	sp, #60	; 0x3c
  203c2e:	e8bd 8ff0 	ldmia.w	sp!, {r4, r5, r6, r7, r8, r9, sl, fp, pc}
  203c32:	bf00      	nop
  203c34:	002065e0 	.word	0x002065e0
  203c38:	002065c7 	.word	0x002065c7

00203c3c <process_thread_ctimer_process>:
  203c3c:	b5f8      	push	{r3, r4, r5, r6, r7, lr}
  203c3e:	8803      	ldrh	r3, [r0, #0]
  203c40:	4606      	mov	r6, r0
  203c42:	4615      	mov	r5, r2
  203c44:	b12b      	cbz	r3, 203c52 <process_thread_ctimer_process+0x16>
  203c46:	2b4a      	cmp	r3, #74	; 0x4a
  203c48:	d015      	beq.n	203c76 <process_thread_ctimer_process+0x3a>
  203c4a:	2300      	movs	r3, #0
  203c4c:	8003      	strh	r3, [r0, #0]
  203c4e:	2003      	movs	r0, #3
  203c50:	bdf8      	pop	{r3, r4, r5, r6, r7, pc}
  203c52:	4817      	ldr	r0, [pc, #92]	; (203cb0 <process_thread_ctimer_process+0x74>)
  203c54:	f001 ff9c 	bl	205b90 <list_head>
  203c58:	4604      	mov	r4, r0
  203c5a:	b12c      	cbz	r4, 203c68 <process_thread_ctimer_process+0x2c>
  203c5c:	68a1      	ldr	r1, [r4, #8]
  203c5e:	1d20      	adds	r0, r4, #4
  203c60:	f001 ff6d 	bl	205b3e <etimer_set>
  203c64:	6824      	ldr	r4, [r4, #0]
  203c66:	e7f8      	b.n	203c5a <process_thread_ctimer_process+0x1e>
  203c68:	4b12      	ldr	r3, [pc, #72]	; (203cb4 <process_thread_ctimer_process+0x78>)
  203c6a:	2201      	movs	r2, #1
  203c6c:	701a      	strb	r2, [r3, #0]
  203c6e:	234a      	movs	r3, #74	; 0x4a
  203c70:	8033      	strh	r3, [r6, #0]
  203c72:	2001      	movs	r0, #1
  203c74:	bdf8      	pop	{r3, r4, r5, r6, r7, pc}
  203c76:	2988      	cmp	r1, #136	; 0x88
  203c78:	d1fb      	bne.n	203c72 <process_thread_ctimer_process+0x36>
  203c7a:	480d      	ldr	r0, [pc, #52]	; (203cb0 <process_thread_ctimer_process+0x74>)
  203c7c:	f001 ff88 	bl	205b90 <list_head>
  203c80:	4604      	mov	r4, r0
  203c82:	2c00      	cmp	r4, #0
  203c84:	d0f3      	beq.n	203c6e <process_thread_ctimer_process+0x32>
  203c86:	1d23      	adds	r3, r4, #4
  203c88:	429d      	cmp	r5, r3
  203c8a:	d10e      	bne.n	203caa <process_thread_ctimer_process+0x6e>
  203c8c:	4621      	mov	r1, r4
  203c8e:	4808      	ldr	r0, [pc, #32]	; (203cb0 <process_thread_ctimer_process+0x74>)
  203c90:	f001 ff88 	bl	205ba4 <list_remove>
  203c94:	4b08      	ldr	r3, [pc, #32]	; (203cb8 <process_thread_ctimer_process+0x7c>)
  203c96:	6962      	ldr	r2, [r4, #20]
  203c98:	681f      	ldr	r7, [r3, #0]
  203c9a:	601a      	str	r2, [r3, #0]
  203c9c:	69a2      	ldr	r2, [r4, #24]
  203c9e:	461d      	mov	r5, r3
  203ca0:	b10a      	cbz	r2, 203ca6 <process_thread_ctimer_process+0x6a>
  203ca2:	69e0      	ldr	r0, [r4, #28]
  203ca4:	4790      	blx	r2
  203ca6:	602f      	str	r7, [r5, #0]
  203ca8:	e7e1      	b.n	203c6e <process_thread_ctimer_process+0x32>
  203caa:	6824      	ldr	r4, [r4, #0]
  203cac:	e7e9      	b.n	203c82 <process_thread_ctimer_process+0x46>
  203cae:	bf00      	nop
  203cb0:	200001c8 	.word	0x200001c8
  203cb4:	20000c66 	.word	0x20000c66
  203cb8:	200001d4 	.word	0x200001d4

00203cbc <ctimer_init>:
  203cbc:	b510      	push	{r4, lr}
  203cbe:	4b06      	ldr	r3, [pc, #24]	; (203cd8 <ctimer_init+0x1c>)
  203cc0:	2400      	movs	r4, #0
  203cc2:	4806      	ldr	r0, [pc, #24]	; (203cdc <ctimer_init+0x20>)
  203cc4:	701c      	strb	r4, [r3, #0]
  203cc6:	f001 ff60 	bl	205b8a <list_init>
  203cca:	4621      	mov	r1, r4
  203ccc:	e8bd 4010 	ldmia.w	sp!, {r4, lr}
  203cd0:	4803      	ldr	r0, [pc, #12]	; (203ce0 <ctimer_init+0x24>)
  203cd2:	f000 ba23 	b.w	20411c <process_start>
  203cd6:	bf00      	nop
  203cd8:	20000c66 	.word	0x20000c66
  203cdc:	200001c8 	.word	0x200001c8
  203ce0:	20000060 	.word	0x20000060

00203ce4 <ctimer_set_with_process>:
  203ce4:	b570      	push	{r4, r5, r6, lr}
  203ce6:	4604      	mov	r4, r0
  203ce8:	61e3      	str	r3, [r4, #28]
  203cea:	4b0b      	ldr	r3, [pc, #44]	; (203d18 <ctimer_set_with_process+0x34>)
  203cec:	9d04      	ldr	r5, [sp, #16]
  203cee:	781b      	ldrb	r3, [r3, #0]
  203cf0:	6165      	str	r5, [r4, #20]
  203cf2:	61a2      	str	r2, [r4, #24]
  203cf4:	b143      	cbz	r3, 203d08 <ctimer_set_with_process+0x24>
  203cf6:	4d09      	ldr	r5, [pc, #36]	; (203d1c <ctimer_set_with_process+0x38>)
  203cf8:	4b09      	ldr	r3, [pc, #36]	; (203d20 <ctimer_set_with_process+0x3c>)
  203cfa:	682e      	ldr	r6, [r5, #0]
  203cfc:	1d20      	adds	r0, r4, #4
  203cfe:	602b      	str	r3, [r5, #0]
  203d00:	f001 ff1d 	bl	205b3e <etimer_set>
  203d04:	602e      	str	r6, [r5, #0]
  203d06:	e000      	b.n	203d0a <ctimer_set_with_process+0x26>
  203d08:	60a1      	str	r1, [r4, #8]
  203d0a:	4621      	mov	r1, r4
  203d0c:	e8bd 4070 	ldmia.w	sp!, {r4, r5, r6, lr}
  203d10:	4804      	ldr	r0, [pc, #16]	; (203d24 <ctimer_set_with_process+0x40>)
  203d12:	f001 bf5a 	b.w	205bca <list_add>
  203d16:	bf00      	nop
  203d18:	20000c66 	.word	0x20000c66
  203d1c:	200001d4 	.word	0x200001d4
  203d20:	20000060 	.word	0x20000060
  203d24:	200001c8 	.word	0x200001c8

00203d28 <ctimer_set>:
  203d28:	b513      	push	{r0, r1, r4, lr}
  203d2a:	4c03      	ldr	r4, [pc, #12]	; (203d38 <ctimer_set+0x10>)
  203d2c:	6824      	ldr	r4, [r4, #0]
  203d2e:	9400      	str	r4, [sp, #0]
  203d30:	f7ff ffd8 	bl	203ce4 <ctimer_set_with_process>
  203d34:	b002      	add	sp, #8
  203d36:	bd10      	pop	{r4, pc}
  203d38:	200001d4 	.word	0x200001d4

00203d3c <ctimer_stop>:
  203d3c:	b510      	push	{r4, lr}
  203d3e:	4b08      	ldr	r3, [pc, #32]	; (203d60 <ctimer_stop+0x24>)
  203d40:	4604      	mov	r4, r0
  203d42:	781b      	ldrb	r3, [r3, #0]
  203d44:	b11b      	cbz	r3, 203d4e <ctimer_stop+0x12>
  203d46:	3004      	adds	r0, #4
  203d48:	f000 f8b4 	bl	203eb4 <etimer_stop>
  203d4c:	e001      	b.n	203d52 <ctimer_stop+0x16>
  203d4e:	60c3      	str	r3, [r0, #12]
  203d50:	6103      	str	r3, [r0, #16]
  203d52:	4621      	mov	r1, r4
  203d54:	e8bd 4010 	ldmia.w	sp!, {r4, lr}
  203d58:	4802      	ldr	r0, [pc, #8]	; (203d64 <ctimer_stop+0x28>)
  203d5a:	f001 bf23 	b.w	205ba4 <list_remove>
  203d5e:	bf00      	nop
  203d60:	20000c66 	.word	0x20000c66
  203d64:	200001c8 	.word	0x200001c8

00203d68 <update_time>:
  203d68:	b510      	push	{r4, lr}
  203d6a:	4c0e      	ldr	r4, [pc, #56]	; (203da4 <update_time+0x3c>)
  203d6c:	6823      	ldr	r3, [r4, #0]
  203d6e:	b913      	cbnz	r3, 203d76 <update_time+0xe>
  203d70:	4a0d      	ldr	r2, [pc, #52]	; (203da8 <update_time+0x40>)
  203d72:	6013      	str	r3, [r2, #0]
  203d74:	bd10      	pop	{r4, pc}
  203d76:	f7fe fc2d 	bl	2025d4 <clock_time>
  203d7a:	6821      	ldr	r1, [r4, #0]
  203d7c:	e891 000c 	ldmia.w	r1, {r2, r3}
  203d80:	441a      	add	r2, r3
  203d82:	1a13      	subs	r3, r2, r0
  203d84:	688a      	ldr	r2, [r1, #8]
  203d86:	b142      	cbz	r2, 203d9a <update_time+0x32>
  203d88:	e892 0012 	ldmia.w	r2, {r1, r4}
  203d8c:	4421      	add	r1, r4
  203d8e:	1a09      	subs	r1, r1, r0
  203d90:	428b      	cmp	r3, r1
  203d92:	bf28      	it	cs
  203d94:	460b      	movcs	r3, r1
  203d96:	6892      	ldr	r2, [r2, #8]
  203d98:	e7f5      	b.n	203d86 <update_time+0x1e>
  203d9a:	4418      	add	r0, r3
  203d9c:	4b02      	ldr	r3, [pc, #8]	; (203da8 <update_time+0x40>)
  203d9e:	6018      	str	r0, [r3, #0]
  203da0:	bd10      	pop	{r4, pc}
  203da2:	bf00      	nop
  203da4:	200001cc 	.word	0x200001cc
  203da8:	200001d0 	.word	0x200001d0

00203dac <etimer_request_poll>:
  203dac:	4801      	ldr	r0, [pc, #4]	; (203db4 <etimer_request_poll+0x8>)
  203dae:	f000 b9cd 	b.w	20414c <process_poll>
  203db2:	bf00      	nop
  203db4:	20000070 	.word	0x20000070

00203db8 <process_thread_etimer_process>:
  203db8:	e92d 43f8 	stmdb	sp!, {r3, r4, r5, r6, r7, r8, r9, lr}
  203dbc:	8803      	ldrh	r3, [r0, #0]
  203dbe:	4605      	mov	r5, r0
  203dc0:	b133      	cbz	r3, 203dd0 <process_thread_etimer_process+0x18>
  203dc2:	2b59      	cmp	r3, #89	; 0x59
  203dc4:	d00b      	beq.n	203dde <process_thread_etimer_process+0x26>
  203dc6:	2300      	movs	r3, #0
  203dc8:	8003      	strh	r3, [r0, #0]
  203dca:	2003      	movs	r0, #3
  203dcc:	e8bd 83f8 	ldmia.w	sp!, {r3, r4, r5, r6, r7, r8, r9, pc}
  203dd0:	4a23      	ldr	r2, [pc, #140]	; (203e60 <process_thread_etimer_process+0xa8>)
  203dd2:	6013      	str	r3, [r2, #0]
  203dd4:	2359      	movs	r3, #89	; 0x59
  203dd6:	802b      	strh	r3, [r5, #0]
  203dd8:	2001      	movs	r0, #1
  203dda:	e8bd 83f8 	ldmia.w	sp!, {r3, r4, r5, r6, r7, r8, r9, pc}
  203dde:	2987      	cmp	r1, #135	; 0x87
  203de0:	d024      	beq.n	203e2c <process_thread_etimer_process+0x74>
  203de2:	2982      	cmp	r1, #130	; 0x82
  203de4:	d1f6      	bne.n	203dd4 <process_thread_etimer_process+0x1c>
  203de6:	4f1e      	ldr	r7, [pc, #120]	; (203e60 <process_thread_etimer_process+0xa8>)
  203de8:	f04f 0800 	mov.w	r8, #0
  203dec:	46b9      	mov	r9, r7
  203dee:	683c      	ldr	r4, [r7, #0]
  203df0:	2600      	movs	r6, #0
  203df2:	2c00      	cmp	r4, #0
  203df4:	d0ee      	beq.n	203dd4 <process_thread_etimer_process+0x1c>
  203df6:	4620      	mov	r0, r4
  203df8:	f001 feb9 	bl	205b6e <timer_expired>
  203dfc:	b198      	cbz	r0, 203e26 <process_thread_etimer_process+0x6e>
  203dfe:	4622      	mov	r2, r4
  203e00:	2188      	movs	r1, #136	; 0x88
  203e02:	68e0      	ldr	r0, [r4, #12]
  203e04:	f000 f962 	bl	2040cc <process_post>
  203e08:	b958      	cbnz	r0, 203e22 <process_thread_etimer_process+0x6a>
  203e0a:	60e0      	str	r0, [r4, #12]
  203e0c:	68a3      	ldr	r3, [r4, #8]
  203e0e:	b10e      	cbz	r6, 203e14 <process_thread_etimer_process+0x5c>
  203e10:	60b3      	str	r3, [r6, #8]
  203e12:	e001      	b.n	203e18 <process_thread_etimer_process+0x60>
  203e14:	f8c9 3000 	str.w	r3, [r9]
  203e18:	f8c4 8008 	str.w	r8, [r4, #8]
  203e1c:	f7ff ffa4 	bl	203d68 <update_time>
  203e20:	e7e5      	b.n	203dee <process_thread_etimer_process+0x36>
  203e22:	f7ff ffc3 	bl	203dac <etimer_request_poll>
  203e26:	4626      	mov	r6, r4
  203e28:	68a4      	ldr	r4, [r4, #8]
  203e2a:	e7e2      	b.n	203df2 <process_thread_etimer_process+0x3a>
  203e2c:	490c      	ldr	r1, [pc, #48]	; (203e60 <process_thread_etimer_process+0xa8>)
  203e2e:	2000      	movs	r0, #0
  203e30:	680b      	ldr	r3, [r1, #0]
  203e32:	b91b      	cbnz	r3, 203e3c <process_thread_etimer_process+0x84>
  203e34:	2800      	cmp	r0, #0
  203e36:	d0cd      	beq.n	203dd4 <process_thread_etimer_process+0x1c>
  203e38:	600b      	str	r3, [r1, #0]
  203e3a:	e7cb      	b.n	203dd4 <process_thread_etimer_process+0x1c>
  203e3c:	68dc      	ldr	r4, [r3, #12]
  203e3e:	42a2      	cmp	r2, r4
  203e40:	d102      	bne.n	203e48 <process_thread_etimer_process+0x90>
  203e42:	689b      	ldr	r3, [r3, #8]
  203e44:	2001      	movs	r0, #1
  203e46:	e7f4      	b.n	203e32 <process_thread_etimer_process+0x7a>
  203e48:	b100      	cbz	r0, 203e4c <process_thread_etimer_process+0x94>
  203e4a:	600b      	str	r3, [r1, #0]
  203e4c:	6899      	ldr	r1, [r3, #8]
  203e4e:	2900      	cmp	r1, #0
  203e50:	d0c0      	beq.n	203dd4 <process_thread_etimer_process+0x1c>
  203e52:	68c8      	ldr	r0, [r1, #12]
  203e54:	4282      	cmp	r2, r0
  203e56:	bf0a      	itet	eq
  203e58:	6889      	ldreq	r1, [r1, #8]
  203e5a:	460b      	movne	r3, r1
  203e5c:	6099      	streq	r1, [r3, #8]
  203e5e:	e7f5      	b.n	203e4c <process_thread_etimer_process+0x94>
  203e60:	200001cc 	.word	0x200001cc

00203e64 <add_timer>:
  203e64:	b510      	push	{r4, lr}
  203e66:	4604      	mov	r4, r0
  203e68:	f7ff ffa0 	bl	203dac <etimer_request_poll>
  203e6c:	68e3      	ldr	r3, [r4, #12]
  203e6e:	4a0b      	ldr	r2, [pc, #44]	; (203e9c <add_timer+0x38>)
  203e70:	b14b      	cbz	r3, 203e86 <add_timer+0x22>
  203e72:	6813      	ldr	r3, [r2, #0]
  203e74:	b13b      	cbz	r3, 203e86 <add_timer+0x22>
  203e76:	42a3      	cmp	r3, r4
  203e78:	d103      	bne.n	203e82 <add_timer+0x1e>
  203e7a:	4a09      	ldr	r2, [pc, #36]	; (203ea0 <add_timer+0x3c>)
  203e7c:	6812      	ldr	r2, [r2, #0]
  203e7e:	60da      	str	r2, [r3, #12]
  203e80:	e007      	b.n	203e92 <add_timer+0x2e>
  203e82:	689b      	ldr	r3, [r3, #8]
  203e84:	e7f6      	b.n	203e74 <add_timer+0x10>
  203e86:	4b06      	ldr	r3, [pc, #24]	; (203ea0 <add_timer+0x3c>)
  203e88:	681b      	ldr	r3, [r3, #0]
  203e8a:	60e3      	str	r3, [r4, #12]
  203e8c:	6813      	ldr	r3, [r2, #0]
  203e8e:	6014      	str	r4, [r2, #0]
  203e90:	60a3      	str	r3, [r4, #8]
  203e92:	e8bd 4010 	ldmia.w	sp!, {r4, lr}
  203e96:	f7ff bf67 	b.w	203d68 <update_time>
  203e9a:	bf00      	nop
  203e9c:	200001cc 	.word	0x200001cc
  203ea0:	200001d4 	.word	0x200001d4

00203ea4 <etimer_pending>:
  203ea4:	4b02      	ldr	r3, [pc, #8]	; (203eb0 <etimer_pending+0xc>)
  203ea6:	6818      	ldr	r0, [r3, #0]
  203ea8:	3000      	adds	r0, #0
  203eaa:	bf18      	it	ne
  203eac:	2001      	movne	r0, #1
  203eae:	4770      	bx	lr
  203eb0:	200001cc 	.word	0x200001cc

00203eb4 <etimer_stop>:
  203eb4:	b510      	push	{r4, lr}
  203eb6:	4a0b      	ldr	r2, [pc, #44]	; (203ee4 <etimer_stop+0x30>)
  203eb8:	4604      	mov	r4, r0
  203eba:	6813      	ldr	r3, [r2, #0]
  203ebc:	4283      	cmp	r3, r0
  203ebe:	d106      	bne.n	203ece <etimer_stop+0x1a>
  203ec0:	6883      	ldr	r3, [r0, #8]
  203ec2:	6013      	str	r3, [r2, #0]
  203ec4:	e008      	b.n	203ed8 <etimer_stop+0x24>
  203ec6:	689a      	ldr	r2, [r3, #8]
  203ec8:	4294      	cmp	r4, r2
  203eca:	d003      	beq.n	203ed4 <etimer_stop+0x20>
  203ecc:	4613      	mov	r3, r2
  203ece:	2b00      	cmp	r3, #0
  203ed0:	d1f9      	bne.n	203ec6 <etimer_stop+0x12>
  203ed2:	e003      	b.n	203edc <etimer_stop+0x28>
  203ed4:	68a2      	ldr	r2, [r4, #8]
  203ed6:	609a      	str	r2, [r3, #8]
  203ed8:	f7ff ff46 	bl	203d68 <update_time>
  203edc:	2300      	movs	r3, #0
  203ede:	60a3      	str	r3, [r4, #8]
  203ee0:	60e3      	str	r3, [r4, #12]
  203ee2:	bd10      	pop	{r4, pc}
  203ee4:	200001cc 	.word	0x200001cc

00203ee8 <call_process.part.0>:
  203ee8:	b538      	push	{r3, r4, r5, lr}
  203eea:	6883      	ldr	r3, [r0, #8]
  203eec:	4604      	mov	r4, r0
  203eee:	460d      	mov	r5, r1
  203ef0:	b19b      	cbz	r3, 203f1a <call_process.part.0+0x32>
  203ef2:	480a      	ldr	r0, [pc, #40]	; (203f1c <call_process.part.0+0x34>)
  203ef4:	6004      	str	r4, [r0, #0]
  203ef6:	2002      	movs	r0, #2
  203ef8:	73a0      	strb	r0, [r4, #14]
  203efa:	f104 000c 	add.w	r0, r4, #12
  203efe:	4798      	blx	r3
  203f00:	3802      	subs	r0, #2
  203f02:	2801      	cmp	r0, #1
  203f04:	d901      	bls.n	203f0a <call_process.part.0+0x22>
  203f06:	2d83      	cmp	r5, #131	; 0x83
  203f08:	d105      	bne.n	203f16 <call_process.part.0+0x2e>
  203f0a:	4621      	mov	r1, r4
  203f0c:	4620      	mov	r0, r4
  203f0e:	e8bd 4038 	ldmia.w	sp!, {r3, r4, r5, lr}
  203f12:	f000 b805 	b.w	203f20 <exit_process>
  203f16:	2301      	movs	r3, #1
  203f18:	73a3      	strb	r3, [r4, #14]
  203f1a:	bd38      	pop	{r3, r4, r5, pc}
  203f1c:	200001d4 	.word	0x200001d4

00203f20 <exit_process>:
  203f20:	e92d 43f8 	stmdb	sp!, {r3, r4, r5, r6, r7, r8, r9, lr}
  203f24:	4a1c      	ldr	r2, [pc, #112]	; (203f98 <exit_process+0x78>)
  203f26:	4604      	mov	r4, r0
  203f28:	6815      	ldr	r5, [r2, #0]
  203f2a:	4689      	mov	r9, r1
  203f2c:	462b      	mov	r3, r5
  203f2e:	4690      	mov	r8, r2
  203f30:	4e1a      	ldr	r6, [pc, #104]	; (203f9c <exit_process+0x7c>)
  203f32:	6837      	ldr	r7, [r6, #0]
  203f34:	42a3      	cmp	r3, r4
  203f36:	d004      	beq.n	203f42 <exit_process+0x22>
  203f38:	b10b      	cbz	r3, 203f3e <exit_process+0x1e>
  203f3a:	681b      	ldr	r3, [r3, #0]
  203f3c:	e7fa      	b.n	203f34 <exit_process+0x14>
  203f3e:	e8bd 83f8 	ldmia.w	sp!, {r3, r4, r5, r6, r7, r8, r9, pc}
  203f42:	b334      	cbz	r4, 203f92 <exit_process+0x72>
  203f44:	7ba3      	ldrb	r3, [r4, #14]
  203f46:	b1ab      	cbz	r3, 203f74 <exit_process+0x54>
  203f48:	2300      	movs	r3, #0
  203f4a:	73a3      	strb	r3, [r4, #14]
  203f4c:	b145      	cbz	r5, 203f60 <exit_process+0x40>
  203f4e:	42a5      	cmp	r5, r4
  203f50:	d004      	beq.n	203f5c <exit_process+0x3c>
  203f52:	4622      	mov	r2, r4
  203f54:	2187      	movs	r1, #135	; 0x87
  203f56:	4628      	mov	r0, r5
  203f58:	f001 fdfa 	bl	205b50 <call_process>
  203f5c:	682d      	ldr	r5, [r5, #0]
  203f5e:	e7f5      	b.n	203f4c <exit_process+0x2c>
  203f60:	68a3      	ldr	r3, [r4, #8]
  203f62:	b13b      	cbz	r3, 203f74 <exit_process+0x54>
  203f64:	454c      	cmp	r4, r9
  203f66:	d005      	beq.n	203f74 <exit_process+0x54>
  203f68:	6034      	str	r4, [r6, #0]
  203f6a:	462a      	mov	r2, r5
  203f6c:	2183      	movs	r1, #131	; 0x83
  203f6e:	f104 000c 	add.w	r0, r4, #12
  203f72:	4798      	blx	r3
  203f74:	f8d8 3000 	ldr.w	r3, [r8]
  203f78:	429c      	cmp	r4, r3
  203f7a:	d103      	bne.n	203f84 <exit_process+0x64>
  203f7c:	6822      	ldr	r2, [r4, #0]
  203f7e:	4b06      	ldr	r3, [pc, #24]	; (203f98 <exit_process+0x78>)
  203f80:	e005      	b.n	203f8e <exit_process+0x6e>
  203f82:	4613      	mov	r3, r2
  203f84:	b123      	cbz	r3, 203f90 <exit_process+0x70>
  203f86:	681a      	ldr	r2, [r3, #0]
  203f88:	4294      	cmp	r4, r2
  203f8a:	d1fa      	bne.n	203f82 <exit_process+0x62>
  203f8c:	6822      	ldr	r2, [r4, #0]
  203f8e:	601a      	str	r2, [r3, #0]
  203f90:	6037      	str	r7, [r6, #0]
  203f92:	e8bd 83f8 	ldmia.w	sp!, {r3, r4, r5, r6, r7, r8, r9, pc}
  203f96:	bf00      	nop
  203f98:	200001d8 	.word	0x200001d8
  203f9c:	200001d4 	.word	0x200001d4

00203fa0 <do_poll>:
  203fa0:	2300      	movs	r3, #0
  203fa2:	b570      	push	{r4, r5, r6, lr}
  203fa4:	461d      	mov	r5, r3
  203fa6:	4a09      	ldr	r2, [pc, #36]	; (203fcc <do_poll+0x2c>)
  203fa8:	2601      	movs	r6, #1
  203faa:	7013      	strb	r3, [r2, #0]
  203fac:	4a08      	ldr	r2, [pc, #32]	; (203fd0 <do_poll+0x30>)
  203fae:	6814      	ldr	r4, [r2, #0]
  203fb0:	b154      	cbz	r4, 203fc8 <do_poll+0x28>
  203fb2:	7be3      	ldrb	r3, [r4, #15]
  203fb4:	b133      	cbz	r3, 203fc4 <do_poll+0x24>
  203fb6:	73a6      	strb	r6, [r4, #14]
  203fb8:	73e5      	strb	r5, [r4, #15]
  203fba:	2200      	movs	r2, #0
  203fbc:	2182      	movs	r1, #130	; 0x82
  203fbe:	4620      	mov	r0, r4
  203fc0:	f7ff ff92 	bl	203ee8 <call_process.part.0>
  203fc4:	6824      	ldr	r4, [r4, #0]
  203fc6:	e7f3      	b.n	203fb0 <do_poll+0x10>
  203fc8:	bd70      	pop	{r4, r5, r6, pc}
  203fca:	bf00      	nop
  203fcc:	20000c6a 	.word	0x20000c6a
  203fd0:	200001d8 	.word	0x200001d8

00203fd4 <process_alloc_event>:
  203fd4:	4b02      	ldr	r3, [pc, #8]	; (203fe0 <process_alloc_event+0xc>)
  203fd6:	7818      	ldrb	r0, [r3, #0]
  203fd8:	1c42      	adds	r2, r0, #1
  203fda:	701a      	strb	r2, [r3, #0]
  203fdc:	4770      	bx	lr
  203fde:	bf00      	nop
  203fe0:	20000c6b 	.word	0x20000c6b

00203fe4 <process_init>:
  203fe4:	4b06      	ldr	r3, [pc, #24]	; (204000 <process_init+0x1c>)
  203fe6:	228a      	movs	r2, #138	; 0x8a
  203fe8:	701a      	strb	r2, [r3, #0]
  203fea:	4a06      	ldr	r2, [pc, #24]	; (204004 <process_init+0x20>)
  203fec:	2300      	movs	r3, #0
  203fee:	7013      	strb	r3, [r2, #0]
  203ff0:	4a05      	ldr	r2, [pc, #20]	; (204008 <process_init+0x24>)
  203ff2:	7013      	strb	r3, [r2, #0]
  203ff4:	4a05      	ldr	r2, [pc, #20]	; (20400c <process_init+0x28>)
  203ff6:	6013      	str	r3, [r2, #0]
  203ff8:	4a05      	ldr	r2, [pc, #20]	; (204010 <process_init+0x2c>)
  203ffa:	6013      	str	r3, [r2, #0]
  203ffc:	4770      	bx	lr
  203ffe:	bf00      	nop
  204000:	20000c6b 	.word	0x20000c6b
  204004:	20000c67 	.word	0x20000c67
  204008:	20000c68 	.word	0x20000c68
  20400c:	200001d8 	.word	0x200001d8
  204010:	200001d4 	.word	0x200001d4

00204014 <process_run>:
  204014:	e92d 41f0 	stmdb	sp!, {r4, r5, r6, r7, r8, lr}
  204018:	4e1f      	ldr	r6, [pc, #124]	; (204098 <process_run+0x84>)
  20401a:	7833      	ldrb	r3, [r6, #0]
  20401c:	b10b      	cbz	r3, 204022 <process_run+0xe>
  20401e:	f7ff ffbf 	bl	203fa0 <do_poll>
  204022:	4d1e      	ldr	r5, [pc, #120]	; (20409c <process_run+0x88>)
  204024:	782c      	ldrb	r4, [r5, #0]
  204026:	2c00      	cmp	r4, #0
  204028:	d030      	beq.n	20408c <process_run+0x78>
  20402a:	f8df e084 	ldr.w	lr, [pc, #132]	; 2040b0 <process_run+0x9c>
  20402e:	220c      	movs	r2, #12
  204030:	f89e 3000 	ldrb.w	r3, [lr]
  204034:	491a      	ldr	r1, [pc, #104]	; (2040a0 <process_run+0x8c>)
  204036:	435a      	muls	r2, r3
  204038:	1888      	adds	r0, r1, r2
  20403a:	4f1a      	ldr	r7, [pc, #104]	; (2040a4 <process_run+0x90>)
  20403c:	5c89      	ldrb	r1, [r1, r2]
  20403e:	f8df 8074 	ldr.w	r8, [pc, #116]	; 2040b4 <process_run+0xa0>
  204042:	6842      	ldr	r2, [r0, #4]
  204044:	3301      	adds	r3, #1
  204046:	6880      	ldr	r0, [r0, #8]
  204048:	f003 031f 	and.w	r3, r3, #31
  20404c:	3c01      	subs	r4, #1
  20404e:	7039      	strb	r1, [r7, #0]
  204050:	f8c8 2000 	str.w	r2, [r8]
  204054:	f88e 3000 	strb.w	r3, [lr]
  204058:	702c      	strb	r4, [r5, #0]
  20405a:	b988      	cbnz	r0, 204080 <process_run+0x6c>
  20405c:	4c12      	ldr	r4, [pc, #72]	; (2040a8 <process_run+0x94>)
  20405e:	4b13      	ldr	r3, [pc, #76]	; (2040ac <process_run+0x98>)
  204060:	681b      	ldr	r3, [r3, #0]
  204062:	6023      	str	r3, [r4, #0]
  204064:	6823      	ldr	r3, [r4, #0]
  204066:	b18b      	cbz	r3, 20408c <process_run+0x78>
  204068:	7833      	ldrb	r3, [r6, #0]
  20406a:	b10b      	cbz	r3, 204070 <process_run+0x5c>
  20406c:	f7ff ff98 	bl	203fa0 <do_poll>
  204070:	f8d8 2000 	ldr.w	r2, [r8]
  204074:	7839      	ldrb	r1, [r7, #0]
  204076:	6820      	ldr	r0, [r4, #0]
  204078:	f001 fd6a 	bl	205b50 <call_process>
  20407c:	6823      	ldr	r3, [r4, #0]
  20407e:	e7ef      	b.n	204060 <process_run+0x4c>
  204080:	2981      	cmp	r1, #129	; 0x81
  204082:	bf04      	itt	eq
  204084:	2301      	moveq	r3, #1
  204086:	7383      	strbeq	r3, [r0, #14]
  204088:	f001 fd62 	bl	205b50 <call_process>
  20408c:	7833      	ldrb	r3, [r6, #0]
  20408e:	7828      	ldrb	r0, [r5, #0]
  204090:	4418      	add	r0, r3
  204092:	e8bd 81f0 	ldmia.w	sp!, {r4, r5, r6, r7, r8, pc}
  204096:	bf00      	nop
  204098:	20000c6a 	.word	0x20000c6a
  20409c:	20000c68 	.word	0x20000c68
  2040a0:	200001e0 	.word	0x200001e0
  2040a4:	20000c69 	.word	0x20000c69
  2040a8:	20000360 	.word	0x20000360
  2040ac:	200001d8 	.word	0x200001d8
  2040b0:	20000c67 	.word	0x20000c67
  2040b4:	200001dc 	.word	0x200001dc

002040b8 <process_nevents>:
  2040b8:	4a02      	ldr	r2, [pc, #8]	; (2040c4 <process_nevents+0xc>)
  2040ba:	4b03      	ldr	r3, [pc, #12]	; (2040c8 <process_nevents+0x10>)
  2040bc:	7810      	ldrb	r0, [r2, #0]
  2040be:	781b      	ldrb	r3, [r3, #0]
  2040c0:	4418      	add	r0, r3
  2040c2:	4770      	bx	lr
  2040c4:	20000c68 	.word	0x20000c68
  2040c8:	20000c6a 	.word	0x20000c6a

002040cc <process_post>:
  2040cc:	b5f0      	push	{r4, r5, r6, r7, lr}
  2040ce:	4e0b      	ldr	r6, [pc, #44]	; (2040fc <process_post+0x30>)
  2040d0:	7833      	ldrb	r3, [r6, #0]
  2040d2:	2b20      	cmp	r3, #32
  2040d4:	d00f      	beq.n	2040f6 <process_post+0x2a>
  2040d6:	4c0a      	ldr	r4, [pc, #40]	; (204100 <process_post+0x34>)
  2040d8:	250c      	movs	r5, #12
  2040da:	7824      	ldrb	r4, [r4, #0]
  2040dc:	4f09      	ldr	r7, [pc, #36]	; (204104 <process_post+0x38>)
  2040de:	441c      	add	r4, r3
  2040e0:	f004 041f 	and.w	r4, r4, #31
  2040e4:	436c      	muls	r4, r5
  2040e6:	3301      	adds	r3, #1
  2040e8:	193d      	adds	r5, r7, r4
  2040ea:	60a8      	str	r0, [r5, #8]
  2040ec:	5539      	strb	r1, [r7, r4]
  2040ee:	606a      	str	r2, [r5, #4]
  2040f0:	7033      	strb	r3, [r6, #0]
  2040f2:	2000      	movs	r0, #0
  2040f4:	bdf0      	pop	{r4, r5, r6, r7, pc}
  2040f6:	2001      	movs	r0, #1
  2040f8:	bdf0      	pop	{r4, r5, r6, r7, pc}
  2040fa:	bf00      	nop
  2040fc:	20000c68 	.word	0x20000c68
  204100:	20000c67 	.word	0x20000c67
  204104:	200001e0 	.word	0x200001e0

00204108 <process_post_synch>:
  204108:	b538      	push	{r3, r4, r5, lr}
  20410a:	4c03      	ldr	r4, [pc, #12]	; (204118 <process_post_synch+0x10>)
  20410c:	6825      	ldr	r5, [r4, #0]
  20410e:	f001 fd1f 	bl	205b50 <call_process>
  204112:	6025      	str	r5, [r4, #0]
  204114:	bd38      	pop	{r3, r4, r5, pc}
  204116:	bf00      	nop
  204118:	200001d4 	.word	0x200001d4

0020411c <process_start>:
  20411c:	b430      	push	{r4, r5}
  20411e:	4c0a      	ldr	r4, [pc, #40]	; (204148 <process_start+0x2c>)
  204120:	460a      	mov	r2, r1
  204122:	6825      	ldr	r5, [r4, #0]
  204124:	462b      	mov	r3, r5
  204126:	4283      	cmp	r3, r0
  204128:	d00c      	beq.n	204144 <process_start+0x28>
  20412a:	b10b      	cbz	r3, 204130 <process_start+0x14>
  20412c:	681b      	ldr	r3, [r3, #0]
  20412e:	e7fa      	b.n	204126 <process_start+0xa>
  204130:	b140      	cbz	r0, 204144 <process_start+0x28>
  204132:	2101      	movs	r1, #1
  204134:	6005      	str	r5, [r0, #0]
  204136:	7381      	strb	r1, [r0, #14]
  204138:	6020      	str	r0, [r4, #0]
  20413a:	8183      	strh	r3, [r0, #12]
  20413c:	2181      	movs	r1, #129	; 0x81
  20413e:	bc30      	pop	{r4, r5}
  204140:	f7ff bfe2 	b.w	204108 <process_post_synch>
  204144:	bc30      	pop	{r4, r5}
  204146:	4770      	bx	lr
  204148:	200001d8 	.word	0x200001d8

0020414c <process_poll>:
  20414c:	b138      	cbz	r0, 20415e <process_poll+0x12>
  20414e:	7b83      	ldrb	r3, [r0, #14]
  204150:	3b01      	subs	r3, #1
  204152:	2b01      	cmp	r3, #1
  204154:	bf9f      	itttt	ls
  204156:	4a02      	ldrls	r2, [pc, #8]	; (204160 <process_poll+0x14>)
  204158:	2301      	movls	r3, #1
  20415a:	73c3      	strbls	r3, [r0, #15]
  20415c:	7013      	strbls	r3, [r2, #0]
  20415e:	4770      	bx	lr
  204160:	20000c6a 	.word	0x20000c6a

00204164 <rtimer_set>:
  204164:	4602      	mov	r2, r0
  204166:	b510      	push	{r4, lr}
  204168:	4806      	ldr	r0, [pc, #24]	; (204184 <rtimer_set+0x20>)
  20416a:	6053      	str	r3, [r2, #4]
  20416c:	6804      	ldr	r4, [r0, #0]
  20416e:	9b02      	ldr	r3, [sp, #8]
  204170:	6011      	str	r1, [r2, #0]
  204172:	6093      	str	r3, [r2, #8]
  204174:	6002      	str	r2, [r0, #0]
  204176:	b914      	cbnz	r4, 20417e <rtimer_set+0x1a>
  204178:	4608      	mov	r0, r1
  20417a:	f7fe fa6f 	bl	20265c <rtimer_arch_schedule>
  20417e:	2000      	movs	r0, #0
  204180:	bd10      	pop	{r4, pc}
  204182:	bf00      	nop
  204184:	20000364 	.word	0x20000364

00204188 <rtimer_run_next>:
  204188:	b510      	push	{r4, lr}
  20418a:	4c08      	ldr	r4, [pc, #32]	; (2041ac <rtimer_run_next+0x24>)
  20418c:	6820      	ldr	r0, [r4, #0]
  20418e:	b158      	cbz	r0, 2041a8 <rtimer_run_next+0x20>
  204190:	2300      	movs	r3, #0
  204192:	6023      	str	r3, [r4, #0]
  204194:	6881      	ldr	r1, [r0, #8]
  204196:	6843      	ldr	r3, [r0, #4]
  204198:	4798      	blx	r3
  20419a:	6823      	ldr	r3, [r4, #0]
  20419c:	b123      	cbz	r3, 2041a8 <rtimer_run_next+0x20>
  20419e:	e8bd 4010 	ldmia.w	sp!, {r4, lr}
  2041a2:	6818      	ldr	r0, [r3, #0]
  2041a4:	f7fe ba5a 	b.w	20265c <rtimer_arch_schedule>
  2041a8:	bd10      	pop	{r4, pc}
  2041aa:	bf00      	nop
  2041ac:	20000364 	.word	0x20000364

002041b0 <leds_init>:
  2041b0:	b508      	push	{r3, lr}
  2041b2:	f7fe f94d 	bl	202450 <leds_arch_init>
  2041b6:	4b02      	ldr	r3, [pc, #8]	; (2041c0 <leds_init+0x10>)
  2041b8:	2200      	movs	r2, #0
  2041ba:	701a      	strb	r2, [r3, #0]
  2041bc:	bd08      	pop	{r3, pc}
  2041be:	bf00      	nop
  2041c0:	20000c6c 	.word	0x20000c6c

002041c4 <leds_on>:
  2041c4:	4a02      	ldr	r2, [pc, #8]	; (2041d0 <leds_on+0xc>)
  2041c6:	7813      	ldrb	r3, [r2, #0]
  2041c8:	4318      	orrs	r0, r3
  2041ca:	7010      	strb	r0, [r2, #0]
  2041cc:	f7fe b948 	b.w	202460 <leds_arch_set>
  2041d0:	20000c6c 	.word	0x20000c6c

002041d4 <leds_off>:
  2041d4:	4a03      	ldr	r2, [pc, #12]	; (2041e4 <leds_off+0x10>)
  2041d6:	7813      	ldrb	r3, [r2, #0]
  2041d8:	ea23 0000 	bic.w	r0, r3, r0
  2041dc:	7010      	strb	r0, [r2, #0]
  2041de:	f7fe b93f 	b.w	202460 <leds_arch_set>
  2041e2:	bf00      	nop
  2041e4:	20000c6c 	.word	0x20000c6c

002041e8 <leds_toggle>:
  2041e8:	4a02      	ldr	r2, [pc, #8]	; (2041f4 <leds_toggle+0xc>)
  2041ea:	7813      	ldrb	r3, [r2, #0]
  2041ec:	4058      	eors	r0, r3
  2041ee:	7010      	strb	r0, [r2, #0]
  2041f0:	f7fe b936 	b.w	202460 <leds_arch_set>
  2041f4:	20000c6c 	.word	0x20000c6c

002041f8 <process_thread_serial_line_process>:
  2041f8:	b570      	push	{r4, r5, r6, lr}
  2041fa:	8805      	ldrh	r5, [r0, #0]
  2041fc:	4604      	mov	r4, r0
  2041fe:	2d67      	cmp	r5, #103	; 0x67
  204200:	d009      	beq.n	204216 <process_thread_serial_line_process+0x1e>
  204202:	2d79      	cmp	r5, #121	; 0x79
  204204:	d030      	beq.n	204268 <process_thread_serial_line_process+0x70>
  204206:	2d00      	cmp	r5, #0
  204208:	d134      	bne.n	204274 <process_thread_serial_line_process+0x7c>
  20420a:	f7ff fee3 	bl	203fd4 <process_alloc_event>
  20420e:	4b1c      	ldr	r3, [pc, #112]	; (204280 <process_thread_serial_line_process+0x88>)
  204210:	7018      	strb	r0, [r3, #0]
  204212:	4b1c      	ldr	r3, [pc, #112]	; (204284 <process_thread_serial_line_process+0x8c>)
  204214:	601d      	str	r5, [r3, #0]
  204216:	4d1b      	ldr	r5, [pc, #108]	; (204284 <process_thread_serial_line_process+0x8c>)
  204218:	462e      	mov	r6, r5
  20421a:	481b      	ldr	r0, [pc, #108]	; (204288 <process_thread_serial_line_process+0x90>)
  20421c:	f001 fd56 	bl	205ccc <ringbuf_get>
  204220:	1c43      	adds	r3, r0, #1
  204222:	d101      	bne.n	204228 <process_thread_serial_line_process+0x30>
  204224:	2367      	movs	r3, #103	; 0x67
  204226:	e01d      	b.n	204264 <process_thread_serial_line_process+0x6c>
  204228:	280a      	cmp	r0, #10
  20422a:	4a16      	ldr	r2, [pc, #88]	; (204284 <process_thread_serial_line_process+0x8c>)
  20422c:	d007      	beq.n	20423e <process_thread_serial_line_process+0x46>
  20422e:	682b      	ldr	r3, [r5, #0]
  204230:	2b7e      	cmp	r3, #126	; 0x7e
  204232:	dcf2      	bgt.n	20421a <process_thread_serial_line_process+0x22>
  204234:	1c5a      	adds	r2, r3, #1
  204236:	6032      	str	r2, [r6, #0]
  204238:	4a14      	ldr	r2, [pc, #80]	; (20428c <process_thread_serial_line_process+0x94>)
  20423a:	54d0      	strb	r0, [r2, r3]
  20423c:	e7ed      	b.n	20421a <process_thread_serial_line_process+0x22>
  20423e:	6813      	ldr	r3, [r2, #0]
  204240:	2500      	movs	r5, #0
  204242:	1c59      	adds	r1, r3, #1
  204244:	6011      	str	r1, [r2, #0]
  204246:	4a11      	ldr	r2, [pc, #68]	; (20428c <process_thread_serial_line_process+0x94>)
  204248:	4628      	mov	r0, r5
  20424a:	54d5      	strb	r5, [r2, r3]
  20424c:	4b0c      	ldr	r3, [pc, #48]	; (204280 <process_thread_serial_line_process+0x88>)
  20424e:	7819      	ldrb	r1, [r3, #0]
  204250:	f7ff ff3c 	bl	2040cc <process_post>
  204254:	4b0e      	ldr	r3, [pc, #56]	; (204290 <process_thread_serial_line_process+0x98>)
  204256:	462a      	mov	r2, r5
  204258:	2185      	movs	r1, #133	; 0x85
  20425a:	6818      	ldr	r0, [r3, #0]
  20425c:	f7ff ff36 	bl	2040cc <process_post>
  204260:	b920      	cbnz	r0, 20426c <process_thread_serial_line_process+0x74>
  204262:	2379      	movs	r3, #121	; 0x79
  204264:	8023      	strh	r3, [r4, #0]
  204266:	e009      	b.n	20427c <process_thread_serial_line_process+0x84>
  204268:	2985      	cmp	r1, #133	; 0x85
  20426a:	d107      	bne.n	20427c <process_thread_serial_line_process+0x84>
  20426c:	4b05      	ldr	r3, [pc, #20]	; (204284 <process_thread_serial_line_process+0x8c>)
  20426e:	2200      	movs	r2, #0
  204270:	601a      	str	r2, [r3, #0]
  204272:	e7d0      	b.n	204216 <process_thread_serial_line_process+0x1e>
  204274:	2300      	movs	r3, #0
  204276:	8003      	strh	r3, [r0, #0]
  204278:	2003      	movs	r0, #3
  20427a:	bd70      	pop	{r4, r5, r6, pc}
  20427c:	2001      	movs	r0, #1
  20427e:	bd70      	pop	{r4, r5, r6, pc}
  204280:	20000dd6 	.word	0x20000dd6
  204284:	20000368 	.word	0x20000368
  204288:	2000036c 	.word	0x2000036c
  20428c:	20000c6d 	.word	0x20000c6d
  204290:	200001d4 	.word	0x200001d4

00204294 <serial_line_input_byte>:
  204294:	280d      	cmp	r0, #13
  204296:	b510      	push	{r4, lr}
  204298:	4601      	mov	r1, r0
  20429a:	d015      	beq.n	2042c8 <serial_line_input_byte+0x34>
  20429c:	4c0b      	ldr	r4, [pc, #44]	; (2042cc <serial_line_input_byte+0x38>)
  20429e:	7823      	ldrb	r3, [r4, #0]
  2042a0:	b92b      	cbnz	r3, 2042ae <serial_line_input_byte+0x1a>
  2042a2:	480b      	ldr	r0, [pc, #44]	; (2042d0 <serial_line_input_byte+0x3c>)
  2042a4:	f001 fcff 	bl	205ca6 <ringbuf_put>
  2042a8:	b948      	cbnz	r0, 2042be <serial_line_input_byte+0x2a>
  2042aa:	2301      	movs	r3, #1
  2042ac:	e006      	b.n	2042bc <serial_line_input_byte+0x28>
  2042ae:	280a      	cmp	r0, #10
  2042b0:	d105      	bne.n	2042be <serial_line_input_byte+0x2a>
  2042b2:	4807      	ldr	r0, [pc, #28]	; (2042d0 <serial_line_input_byte+0x3c>)
  2042b4:	f001 fcf7 	bl	205ca6 <ringbuf_put>
  2042b8:	b108      	cbz	r0, 2042be <serial_line_input_byte+0x2a>
  2042ba:	2300      	movs	r3, #0
  2042bc:	7023      	strb	r3, [r4, #0]
  2042be:	4805      	ldr	r0, [pc, #20]	; (2042d4 <serial_line_input_byte+0x40>)
  2042c0:	f7ff ff44 	bl	20414c <process_poll>
  2042c4:	2001      	movs	r0, #1
  2042c6:	bd10      	pop	{r4, pc}
  2042c8:	2000      	movs	r0, #0
  2042ca:	bd10      	pop	{r4, pc}
  2042cc:	20000d6d 	.word	0x20000d6d
  2042d0:	2000036c 	.word	0x2000036c
  2042d4:	20000080 	.word	0x20000080

002042d8 <serial_line_init>:
  2042d8:	b508      	push	{r3, lr}
  2042da:	4905      	ldr	r1, [pc, #20]	; (2042f0 <serial_line_init+0x18>)
  2042dc:	4805      	ldr	r0, [pc, #20]	; (2042f4 <serial_line_init+0x1c>)
  2042de:	2280      	movs	r2, #128	; 0x80
  2042e0:	f001 fcda 	bl	205c98 <ringbuf_init>
  2042e4:	e8bd 4008 	ldmia.w	sp!, {r3, lr}
  2042e8:	2100      	movs	r1, #0
  2042ea:	4803      	ldr	r0, [pc, #12]	; (2042f8 <serial_line_init+0x20>)
  2042ec:	f7ff bf16 	b.w	20411c <process_start>
  2042f0:	20000ced 	.word	0x20000ced
  2042f4:	2000036c 	.word	0x2000036c
  2042f8:	20000080 	.word	0x20000080

002042fc <random_rand>:
  2042fc:	4a05      	ldr	r2, [pc, #20]	; (204314 <random_rand+0x18>)
  2042fe:	6813      	ldr	r3, [r2, #0]
  204300:	f043 0304 	orr.w	r3, r3, #4
  204304:	6013      	str	r3, [r2, #0]
  204306:	4b04      	ldr	r3, [pc, #16]	; (204318 <random_rand+0x1c>)
  204308:	681b      	ldr	r3, [r3, #0]
  20430a:	6990      	ldr	r0, [r2, #24]
  20430c:	ea43 2000 	orr.w	r0, r3, r0, lsl #8
  204310:	b280      	uxth	r0, r0
  204312:	4770      	bx	lr
  204314:	400d7000 	.word	0x400d7000
  204318:	400d7014 	.word	0x400d7014

0020431c <random_init>:
  20431c:	b510      	push	{r4, lr}
  20431e:	4a18      	ldr	r2, [pc, #96]	; (204380 <random_init+0x64>)
  204320:	6813      	ldr	r3, [r2, #0]
  204322:	f023 030c 	bic.w	r3, r3, #12
  204326:	6013      	str	r3, [r2, #0]
  204328:	4b16      	ldr	r3, [pc, #88]	; (204384 <random_init+0x68>)
  20432a:	2201      	movs	r2, #1
  20432c:	601a      	str	r2, [r3, #0]
  20432e:	681a      	ldr	r2, [r3, #0]
  204330:	2a01      	cmp	r2, #1
  204332:	d1fc      	bne.n	20432e <random_init+0x12>
  204334:	4b14      	ldr	r3, [pc, #80]	; (204388 <random_init+0x6c>)
  204336:	2208      	movs	r2, #8
  204338:	601a      	str	r2, [r3, #0]
  20433a:	22e3      	movs	r2, #227	; 0xe3
  20433c:	f8c3 2214 	str.w	r2, [r3, #532]	; 0x214
  204340:	f503 7305 	add.w	r3, r3, #532	; 0x214
  204344:	4619      	mov	r1, r3
  204346:	4a11      	ldr	r2, [pc, #68]	; (20438c <random_init+0x70>)
  204348:	6813      	ldr	r3, [r2, #0]
  20434a:	07db      	lsls	r3, r3, #31
  20434c:	d5fc      	bpl.n	204348 <random_init+0x2c>
  20434e:	4c10      	ldr	r4, [pc, #64]	; (204390 <random_init+0x74>)
  204350:	2010      	movs	r0, #16
  204352:	2300      	movs	r3, #0
  204354:	6822      	ldr	r2, [r4, #0]
  204356:	3801      	subs	r0, #1
  204358:	f002 0201 	and.w	r2, r2, #1
  20435c:	ea43 0302 	orr.w	r3, r3, r2
  204360:	ea4f 0343 	mov.w	r3, r3, lsl #1
  204364:	b29b      	uxth	r3, r3
  204366:	d1f5      	bne.n	204354 <random_init+0x38>
  204368:	2b00      	cmp	r3, #0
  20436a:	d0f1      	beq.n	204350 <random_init+0x34>
  20436c:	4a09      	ldr	r2, [pc, #36]	; (204394 <random_init+0x78>)
  20436e:	0a18      	lsrs	r0, r3, #8
  204370:	f003 03fe 	and.w	r3, r3, #254	; 0xfe
  204374:	6010      	str	r0, [r2, #0]
  204376:	6013      	str	r3, [r2, #0]
  204378:	23ef      	movs	r3, #239	; 0xef
  20437a:	600b      	str	r3, [r1, #0]
  20437c:	bd10      	pop	{r4, pc}
  20437e:	bf00      	nop
  204380:	400d7000 	.word	0x400d7000
  204384:	400d20a8 	.word	0x400d20a8
  204388:	40088624 	.word	0x40088624
  20438c:	40088664 	.word	0x40088664
  204390:	4008869c 	.word	0x4008869c
  204394:	400d7014 	.word	0x400d7014

00204398 <process_thread_sensors_process>:
  204398:	e92d 41f0 	stmdb	sp!, {r4, r5, r6, r7, r8, lr}
  20439c:	8806      	ldrh	r6, [r0, #0]
  20439e:	4605      	mov	r5, r0
  2043a0:	2e77      	cmp	r6, #119	; 0x77
  2043a2:	d031      	beq.n	204408 <process_thread_sensors_process+0x70>
  2043a4:	2e7e      	cmp	r6, #126	; 0x7e
  2043a6:	d040      	beq.n	20442a <process_thread_sensors_process+0x92>
  2043a8:	2e00      	cmp	r6, #0
  2043aa:	d14e      	bne.n	20444a <process_thread_sensors_process+0xb2>
  2043ac:	4c2b      	ldr	r4, [pc, #172]	; (20445c <process_thread_sensors_process+0xc4>)
  2043ae:	f7ff fe11 	bl	203fd4 <process_alloc_event>
  2043b2:	6026      	str	r6, [r4, #0]
  2043b4:	4626      	mov	r6, r4
  2043b6:	4b2a      	ldr	r3, [pc, #168]	; (204460 <process_thread_sensors_process+0xc8>)
  2043b8:	4f2a      	ldr	r7, [pc, #168]	; (204464 <process_thread_sensors_process+0xcc>)
  2043ba:	f8df 80b0 	ldr.w	r8, [pc, #176]	; 20446c <process_thread_sensors_process+0xd4>
  2043be:	7018      	strb	r0, [r3, #0]
  2043c0:	6823      	ldr	r3, [r4, #0]
  2043c2:	f857 2023 	ldr.w	r2, [r7, r3, lsl #2]
  2043c6:	b14a      	cbz	r2, 2043dc <process_thread_sensors_process+0x44>
  2043c8:	2100      	movs	r1, #0
  2043ca:	f808 1003 	strb.w	r1, [r8, r3]
  2043ce:	6893      	ldr	r3, [r2, #8]
  2043d0:	2080      	movs	r0, #128	; 0x80
  2043d2:	4798      	blx	r3
  2043d4:	6833      	ldr	r3, [r6, #0]
  2043d6:	3301      	adds	r3, #1
  2043d8:	6033      	str	r3, [r6, #0]
  2043da:	e7f1      	b.n	2043c0 <process_thread_sensors_process+0x28>
  2043dc:	4a22      	ldr	r2, [pc, #136]	; (204468 <process_thread_sensors_process+0xd0>)
  2043de:	7013      	strb	r3, [r2, #0]
  2043e0:	2377      	movs	r3, #119	; 0x77
  2043e2:	e020      	b.n	204426 <process_thread_sensors_process+0x8e>
  2043e4:	4a21      	ldr	r2, [pc, #132]	; (20446c <process_thread_sensors_process+0xd4>)
  2043e6:	56d2      	ldrsb	r2, [r2, r3]
  2043e8:	2a00      	cmp	r2, #0
  2043ea:	db12      	blt.n	204412 <process_thread_sensors_process+0x7a>
  2043ec:	4a1b      	ldr	r2, [pc, #108]	; (20445c <process_thread_sensors_process+0xc4>)
  2043ee:	6813      	ldr	r3, [r2, #0]
  2043f0:	3301      	adds	r3, #1
  2043f2:	6013      	str	r3, [r2, #0]
  2043f4:	4b19      	ldr	r3, [pc, #100]	; (20445c <process_thread_sensors_process+0xc4>)
  2043f6:	4a1c      	ldr	r2, [pc, #112]	; (204468 <process_thread_sensors_process+0xd0>)
  2043f8:	681b      	ldr	r3, [r3, #0]
  2043fa:	7812      	ldrb	r2, [r2, #0]
  2043fc:	429a      	cmp	r2, r3
  2043fe:	dcf1      	bgt.n	2043e4 <process_thread_sensors_process+0x4c>
  204400:	4b1b      	ldr	r3, [pc, #108]	; (204470 <process_thread_sensors_process+0xd8>)
  204402:	681b      	ldr	r3, [r3, #0]
  204404:	2b00      	cmp	r3, #0
  204406:	d0eb      	beq.n	2043e0 <process_thread_sensors_process+0x48>
  204408:	4a19      	ldr	r2, [pc, #100]	; (204470 <process_thread_sensors_process+0xd8>)
  20440a:	2300      	movs	r3, #0
  20440c:	6013      	str	r3, [r2, #0]
  20440e:	4a13      	ldr	r2, [pc, #76]	; (20445c <process_thread_sensors_process+0xc4>)
  204410:	e7ef      	b.n	2043f2 <process_thread_sensors_process+0x5a>
  204412:	4a14      	ldr	r2, [pc, #80]	; (204464 <process_thread_sensors_process+0xcc>)
  204414:	2000      	movs	r0, #0
  204416:	f852 2023 	ldr.w	r2, [r2, r3, lsl #2]
  20441a:	4b11      	ldr	r3, [pc, #68]	; (204460 <process_thread_sensors_process+0xc8>)
  20441c:	7819      	ldrb	r1, [r3, #0]
  20441e:	f7ff fe55 	bl	2040cc <process_post>
  204422:	b930      	cbnz	r0, 204432 <process_thread_sensors_process+0x9a>
  204424:	237e      	movs	r3, #126	; 0x7e
  204426:	802b      	strh	r3, [r5, #0]
  204428:	e014      	b.n	204454 <process_thread_sensors_process+0xbc>
  20442a:	4b0d      	ldr	r3, [pc, #52]	; (204460 <process_thread_sensors_process+0xc8>)
  20442c:	781b      	ldrb	r3, [r3, #0]
  20442e:	428b      	cmp	r3, r1
  204430:	d110      	bne.n	204454 <process_thread_sensors_process+0xbc>
  204432:	4b0a      	ldr	r3, [pc, #40]	; (20445c <process_thread_sensors_process+0xc4>)
  204434:	490d      	ldr	r1, [pc, #52]	; (20446c <process_thread_sensors_process+0xd4>)
  204436:	681a      	ldr	r2, [r3, #0]
  204438:	5c8b      	ldrb	r3, [r1, r2]
  20443a:	f003 037f 	and.w	r3, r3, #127	; 0x7f
  20443e:	548b      	strb	r3, [r1, r2]
  204440:	4a0b      	ldr	r2, [pc, #44]	; (204470 <process_thread_sensors_process+0xd8>)
  204442:	6813      	ldr	r3, [r2, #0]
  204444:	3301      	adds	r3, #1
  204446:	6013      	str	r3, [r2, #0]
  204448:	e7d0      	b.n	2043ec <process_thread_sensors_process+0x54>
  20444a:	2300      	movs	r3, #0
  20444c:	8003      	strh	r3, [r0, #0]
  20444e:	2003      	movs	r0, #3
  204450:	e8bd 81f0 	ldmia.w	sp!, {r4, r5, r6, r7, r8, pc}
  204454:	2001      	movs	r0, #1
  204456:	e8bd 81f0 	ldmia.w	sp!, {r4, r5, r6, r7, r8, pc}
  20445a:	bf00      	nop
  20445c:	20000374 	.word	0x20000374
  204460:	20000dd7 	.word	0x20000dd7
  204464:	20000040 	.word	0x20000040
  204468:	20000d6e 	.word	0x20000d6e
  20446c:	20000dd4 	.word	0x20000dd4
  204470:	20000378 	.word	0x20000378

00204474 <sensors_changed>:
  204474:	b410      	push	{r4}
  204476:	4b0a      	ldr	r3, [pc, #40]	; (2044a0 <sensors_changed+0x2c>)
  204478:	490a      	ldr	r1, [pc, #40]	; (2044a4 <sensors_changed+0x30>)
  20447a:	781a      	ldrb	r2, [r3, #0]
  20447c:	2300      	movs	r3, #0
  20447e:	4293      	cmp	r3, r2
  204480:	da03      	bge.n	20448a <sensors_changed+0x16>
  204482:	f851 4023 	ldr.w	r4, [r1, r3, lsl #2]
  204486:	42a0      	cmp	r0, r4
  204488:	d108      	bne.n	20449c <sensors_changed+0x28>
  20448a:	4907      	ldr	r1, [pc, #28]	; (2044a8 <sensors_changed+0x34>)
  20448c:	4807      	ldr	r0, [pc, #28]	; (2044ac <sensors_changed+0x38>)
  20448e:	5cca      	ldrb	r2, [r1, r3]
  204490:	f062 027f 	orn	r2, r2, #127	; 0x7f
  204494:	54ca      	strb	r2, [r1, r3]
  204496:	bc10      	pop	{r4}
  204498:	f7ff be58 	b.w	20414c <process_poll>
  20449c:	3301      	adds	r3, #1
  20449e:	e7ee      	b.n	20447e <sensors_changed+0xa>
  2044a0:	20000d6e 	.word	0x20000d6e
  2044a4:	20000040 	.word	0x20000040
  2044a8:	20000dd4 	.word	0x20000dd4
  2044ac:	20000090 	.word	0x20000090

002044b0 <abc_open>:
  2044b0:	b570      	push	{r4, r5, r6, lr}
  2044b2:	4605      	mov	r5, r0
  2044b4:	460c      	mov	r4, r1
  2044b6:	4616      	mov	r6, r2
  2044b8:	f000 f90e 	bl	2046d8 <channel_open>
  2044bc:	612e      	str	r6, [r5, #16]
  2044be:	4620      	mov	r0, r4
  2044c0:	e8bd 4070 	ldmia.w	sp!, {r4, r5, r6, lr}
  2044c4:	4901      	ldr	r1, [pc, #4]	; (2044cc <abc_open+0x1c>)
  2044c6:	f001 bd9d 	b.w	206004 <channel_set_attributes>
  2044ca:	bf00      	nop
  2044cc:	00206621 	.word	0x00206621

002044d0 <announcement_init>:
  2044d0:	4801      	ldr	r0, [pc, #4]	; (2044d8 <announcement_init+0x8>)
  2044d2:	f001 bb5a 	b.w	205b8a <list_init>
  2044d6:	bf00      	nop
  2044d8:	2000037c 	.word	0x2000037c

002044dc <announcement_register_observer_callback>:
  2044dc:	4b01      	ldr	r3, [pc, #4]	; (2044e4 <announcement_register_observer_callback+0x8>)
  2044de:	6018      	str	r0, [r3, #0]
  2044e0:	4770      	bx	lr
  2044e2:	bf00      	nop
  2044e4:	20000380 	.word	0x20000380

002044e8 <announcement_list>:
  2044e8:	4801      	ldr	r0, [pc, #4]	; (2044f0 <announcement_list+0x8>)
  2044ea:	f001 bb51 	b.w	205b90 <list_head>
  2044ee:	bf00      	nop
  2044f0:	2000037c 	.word	0x2000037c

002044f4 <announcement_heard>:
  2044f4:	e92d 41f0 	stmdb	sp!, {r4, r5, r6, r7, r8, lr}
  2044f8:	4606      	mov	r6, r0
  2044fa:	480b      	ldr	r0, [pc, #44]	; (204528 <announcement_heard+0x34>)
  2044fc:	460c      	mov	r4, r1
  2044fe:	4617      	mov	r7, r2
  204500:	f001 fb46 	bl	205b90 <list_head>
  204504:	b170      	cbz	r0, 204524 <announcement_heard+0x30>
  204506:	8883      	ldrh	r3, [r0, #4]
  204508:	42a3      	cmp	r3, r4
  20450a:	d108      	bne.n	20451e <announcement_heard+0x2a>
  20450c:	6885      	ldr	r5, [r0, #8]
  20450e:	b14d      	cbz	r5, 204524 <announcement_heard+0x30>
  204510:	463b      	mov	r3, r7
  204512:	4622      	mov	r2, r4
  204514:	4631      	mov	r1, r6
  204516:	46ac      	mov	ip, r5
  204518:	e8bd 41f0 	ldmia.w	sp!, {r4, r5, r6, r7, r8, lr}
  20451c:	4760      	bx	ip
  20451e:	f001 fb70 	bl	205c02 <list_item_next>
  204522:	e7ef      	b.n	204504 <announcement_heard+0x10>
  204524:	e8bd 81f0 	ldmia.w	sp!, {r4, r5, r6, r7, r8, pc}
  204528:	2000037c 	.word	0x2000037c

0020452c <set_timers>:
  20452c:	b570      	push	{r4, r5, r6, lr}
  20452e:	4c0b      	ldr	r4, [pc, #44]	; (20455c <set_timers+0x30>)
  204530:	2300      	movs	r3, #0
  204532:	6e61      	ldr	r1, [r4, #100]	; 0x64
  204534:	4a0a      	ldr	r2, [pc, #40]	; (204560 <set_timers+0x34>)
  204536:	f104 0038 	add.w	r0, r4, #56	; 0x38
  20453a:	f7ff fbf5 	bl	203d28 <ctimer_set>
  20453e:	f7ff fedd 	bl	2042fc <random_rand>
  204542:	6e61      	ldr	r1, [r4, #100]	; 0x64
  204544:	2300      	movs	r3, #0
  204546:	fbb0 f5f1 	udiv	r5, r0, r1
  20454a:	4a06      	ldr	r2, [pc, #24]	; (204564 <set_timers+0x38>)
  20454c:	fb05 0111 	mls	r1, r5, r1, r0
  204550:	f104 0018 	add.w	r0, r4, #24
  204554:	e8bd 4070 	ldmia.w	sp!, {r4, r5, r6, lr}
  204558:	f7ff bbe6 	b.w	203d28 <ctimer_set>
  20455c:	20000384 	.word	0x20000384
  204560:	00204569 	.word	0x00204569
  204564:	00204581 	.word	0x00204581

00204568 <send_timer>:
  204568:	4b04      	ldr	r3, [pc, #16]	; (20457c <send_timer+0x14>)
  20456a:	6e5a      	ldr	r2, [r3, #100]	; 0x64
  20456c:	6e19      	ldr	r1, [r3, #96]	; 0x60
  20456e:	0052      	lsls	r2, r2, #1
  204570:	428a      	cmp	r2, r1
  204572:	bf94      	ite	ls
  204574:	665a      	strls	r2, [r3, #100]	; 0x64
  204576:	6659      	strhi	r1, [r3, #100]	; 0x64
  204578:	f7ff bfd8 	b.w	20452c <set_timers>
  20457c:	20000384 	.word	0x20000384

00204580 <send_adv>:
  204580:	b510      	push	{r4, lr}
  204582:	f000 f9e5 	bl	204950 <packetbuf_clear>
  204586:	f000 f983 	bl	204890 <packetbuf_dataptr>
  20458a:	2300      	movs	r3, #0
  20458c:	8003      	strh	r3, [r0, #0]
  20458e:	4604      	mov	r4, r0
  204590:	f7ff ffaa 	bl	2044e8 <announcement_list>
  204594:	b168      	cbz	r0, 2045b2 <send_adv+0x32>
  204596:	7b03      	ldrb	r3, [r0, #12]
  204598:	b15b      	cbz	r3, 2045b2 <send_adv+0x32>
  20459a:	8823      	ldrh	r3, [r4, #0]
  20459c:	8881      	ldrh	r1, [r0, #4]
  20459e:	eb04 0283 	add.w	r2, r4, r3, lsl #2
  2045a2:	8051      	strh	r1, [r2, #2]
  2045a4:	88c1      	ldrh	r1, [r0, #6]
  2045a6:	3301      	adds	r3, #1
  2045a8:	8091      	strh	r1, [r2, #4]
  2045aa:	8023      	strh	r3, [r4, #0]
  2045ac:	f001 fb29 	bl	205c02 <list_item_next>
  2045b0:	e7f0      	b.n	204594 <send_adv+0x14>
  2045b2:	8820      	ldrh	r0, [r4, #0]
  2045b4:	0080      	lsls	r0, r0, #2
  2045b6:	3002      	adds	r0, #2
  2045b8:	b280      	uxth	r0, r0
  2045ba:	f000 f963 	bl	204884 <packetbuf_set_datalen>
  2045be:	8823      	ldrh	r3, [r4, #0]
  2045c0:	b123      	cbz	r3, 2045cc <send_adv+0x4c>
  2045c2:	e8bd 4010 	ldmia.w	sp!, {r4, lr}
  2045c6:	4802      	ldr	r0, [pc, #8]	; (2045d0 <send_adv+0x50>)
  2045c8:	f000 b83a 	b.w	204640 <broadcast_send>
  2045cc:	bd10      	pop	{r4, pc}
  2045ce:	bf00      	nop
  2045d0:	20000384 	.word	0x20000384

002045d4 <new_announcement>:
  2045d4:	f89d 3000 	ldrb.w	r3, [sp]
  2045d8:	2b01      	cmp	r3, #1
  2045da:	d104      	bne.n	2045e6 <new_announcement+0x12>
  2045dc:	4b02      	ldr	r3, [pc, #8]	; (2045e8 <new_announcement+0x14>)
  2045de:	6d9a      	ldr	r2, [r3, #88]	; 0x58
  2045e0:	665a      	str	r2, [r3, #100]	; 0x64
  2045e2:	f7ff bfa3 	b.w	20452c <set_timers>
  2045e6:	4770      	bx	lr
  2045e8:	20000384 	.word	0x20000384

002045ec <broadcast_announcement_init>:
  2045ec:	b5f8      	push	{r3, r4, r5, r6, r7, lr}
  2045ee:	460f      	mov	r7, r1
  2045f0:	4616      	mov	r6, r2
  2045f2:	461d      	mov	r5, r3
  2045f4:	4c06      	ldr	r4, [pc, #24]	; (204610 <broadcast_announcement_init+0x24>)
  2045f6:	4601      	mov	r1, r0
  2045f8:	4a06      	ldr	r2, [pc, #24]	; (204614 <broadcast_announcement_init+0x28>)
  2045fa:	4620      	mov	r0, r4
  2045fc:	f000 f80e 	bl	20461c <broadcast_open>
  204600:	65a7      	str	r7, [r4, #88]	; 0x58
  204602:	65e6      	str	r6, [r4, #92]	; 0x5c
  204604:	6625      	str	r5, [r4, #96]	; 0x60
  204606:	4804      	ldr	r0, [pc, #16]	; (204618 <broadcast_announcement_init+0x2c>)
  204608:	e8bd 40f8 	ldmia.w	sp!, {r3, r4, r5, r6, r7, lr}
  20460c:	f7ff bf66 	b.w	2044dc <announcement_register_observer_callback>
  204610:	20000384 	.word	0x20000384
  204614:	0020647c 	.word	0x0020647c
  204618:	002045d5 	.word	0x002045d5

0020461c <broadcast_open>:
  20461c:	b570      	push	{r4, r5, r6, lr}
  20461e:	4605      	mov	r5, r0
  204620:	460c      	mov	r4, r1
  204622:	4616      	mov	r6, r2
  204624:	4a04      	ldr	r2, [pc, #16]	; (204638 <broadcast_open+0x1c>)
  204626:	f7ff ff43 	bl	2044b0 <abc_open>
  20462a:	616e      	str	r6, [r5, #20]
  20462c:	4620      	mov	r0, r4
  20462e:	e8bd 4070 	ldmia.w	sp!, {r4, r5, r6, lr}
  204632:	4902      	ldr	r1, [pc, #8]	; (20463c <broadcast_open+0x20>)
  204634:	f001 bce6 	b.w	206004 <channel_set_attributes>
  204638:	00206484 	.word	0x00206484
  20463c:	00206623 	.word	0x00206623

00204640 <broadcast_send>:
  204640:	b510      	push	{r4, lr}
  204642:	4604      	mov	r4, r0
  204644:	4904      	ldr	r1, [pc, #16]	; (204658 <broadcast_send+0x18>)
  204646:	201a      	movs	r0, #26
  204648:	f000 f9e6 	bl	204a18 <packetbuf_set_addr>
  20464c:	4620      	mov	r0, r4
  20464e:	e8bd 4010 	ldmia.w	sp!, {r4, lr}
  204652:	f001 bb4d 	b.w	205cf0 <abc_send>
  204656:	bf00      	nop
  204658:	20000d96 	.word	0x20000d96

0020465c <get_bits_in_byte>:
  20465c:	b510      	push	{r4, lr}
  20465e:	7843      	ldrb	r3, [r0, #1]
  204660:	7804      	ldrb	r4, [r0, #0]
  204662:	ea43 2004 	orr.w	r0, r3, r4, lsl #8
  204666:	4b06      	ldr	r3, [pc, #24]	; (204680 <get_bits_in_byte+0x24>)
  204668:	fa00 f101 	lsl.w	r1, r0, r1
  20466c:	5c9b      	ldrb	r3, [r3, r2]
  20466e:	f1c2 0008 	rsb	r0, r2, #8
  204672:	ea03 2121 	and.w	r1, r3, r1, asr #8
  204676:	fa41 f000 	asr.w	r0, r1, r0
  20467a:	b2c0      	uxtb	r0, r0
  20467c:	bd10      	pop	{r4, pc}
  20467e:	bf00      	nop
  204680:	00206627 	.word	0x00206627

00204684 <chameleon_parse>:
  204684:	4b05      	ldr	r3, [pc, #20]	; (20469c <chameleon_parse+0x18>)
  204686:	b510      	push	{r4, lr}
  204688:	681b      	ldr	r3, [r3, #0]
  20468a:	4798      	blx	r3
  20468c:	4604      	mov	r4, r0
  20468e:	b118      	cbz	r0, 204698 <chameleon_parse+0x14>
  204690:	8881      	ldrh	r1, [r0, #4]
  204692:	2001      	movs	r0, #1
  204694:	f000 f9b2 	bl	2049fc <packetbuf_set_attr>
  204698:	4620      	mov	r0, r4
  20469a:	bd10      	pop	{r4, pc}
  20469c:	0020648c 	.word	0x0020648c

002046a0 <chameleon_create>:
  2046a0:	b538      	push	{r3, r4, r5, lr}
  2046a2:	4b06      	ldr	r3, [pc, #24]	; (2046bc <chameleon_create+0x1c>)
  2046a4:	4605      	mov	r5, r0
  2046a6:	685b      	ldr	r3, [r3, #4]
  2046a8:	4798      	blx	r3
  2046aa:	4604      	mov	r4, r0
  2046ac:	88a9      	ldrh	r1, [r5, #4]
  2046ae:	2001      	movs	r0, #1
  2046b0:	f000 f9a4 	bl	2049fc <packetbuf_set_attr>
  2046b4:	1c20      	adds	r0, r4, #0
  2046b6:	bf18      	it	ne
  2046b8:	2001      	movne	r0, #1
  2046ba:	bd38      	pop	{r3, r4, r5, pc}
  2046bc:	0020648c 	.word	0x0020648c

002046c0 <chameleon_hdrsize>:
  2046c0:	4b01      	ldr	r3, [pc, #4]	; (2046c8 <chameleon_hdrsize+0x8>)
  2046c2:	689b      	ldr	r3, [r3, #8]
  2046c4:	4718      	bx	r3
  2046c6:	bf00      	nop
  2046c8:	0020648c 	.word	0x0020648c

002046cc <channel_init>:
  2046cc:	4801      	ldr	r0, [pc, #4]	; (2046d4 <channel_init+0x8>)
  2046ce:	f001 ba5c 	b.w	205b8a <list_init>
  2046d2:	bf00      	nop
  2046d4:	200003f0 	.word	0x200003f0

002046d8 <channel_open>:
  2046d8:	8081      	strh	r1, [r0, #4]
  2046da:	4601      	mov	r1, r0
  2046dc:	4801      	ldr	r0, [pc, #4]	; (2046e4 <channel_open+0xc>)
  2046de:	f001 ba74 	b.w	205bca <list_add>
  2046e2:	bf00      	nop
  2046e4:	200003f0 	.word	0x200003f0

002046e8 <channel_close>:
  2046e8:	4601      	mov	r1, r0
  2046ea:	4801      	ldr	r0, [pc, #4]	; (2046f0 <channel_close+0x8>)
  2046ec:	f001 ba5a 	b.w	205ba4 <list_remove>
  2046f0:	200003f0 	.word	0x200003f0

002046f4 <channel_lookup>:
  2046f4:	b510      	push	{r4, lr}
  2046f6:	4604      	mov	r4, r0
  2046f8:	4805      	ldr	r0, [pc, #20]	; (204710 <channel_lookup+0x1c>)
  2046fa:	f001 fa49 	bl	205b90 <list_head>
  2046fe:	b128      	cbz	r0, 20470c <channel_lookup+0x18>
  204700:	8883      	ldrh	r3, [r0, #4]
  204702:	42a3      	cmp	r3, r4
  204704:	d002      	beq.n	20470c <channel_lookup+0x18>
  204706:	f001 fa7c 	bl	205c02 <list_item_next>
  20470a:	e7f8      	b.n	2046fe <channel_lookup+0xa>
  20470c:	bd10      	pop	{r4, pc}
  20470e:	bf00      	nop
  204710:	200003f0 	.word	0x200003f0

00204714 <packet_sent>:
  204714:	b5f8      	push	{r3, r4, r5, r6, r7, lr}
  204716:	4606      	mov	r6, r0
  204718:	480a      	ldr	r0, [pc, #40]	; (204744 <packet_sent+0x30>)
  20471a:	460d      	mov	r5, r1
  20471c:	4617      	mov	r7, r2
  20471e:	f001 fa37 	bl	205b90 <list_head>
  204722:	4604      	mov	r4, r0
  204724:	b138      	cbz	r0, 204736 <packet_sent+0x22>
  204726:	68a3      	ldr	r3, [r4, #8]
  204728:	b10b      	cbz	r3, 20472e <packet_sent+0x1a>
  20472a:	4628      	mov	r0, r5
  20472c:	4798      	blx	r3
  20472e:	4620      	mov	r0, r4
  204730:	f001 fa67 	bl	205c02 <list_item_next>
  204734:	e7f5      	b.n	204722 <packet_sent+0xe>
  204736:	463a      	mov	r2, r7
  204738:	4629      	mov	r1, r5
  20473a:	4630      	mov	r0, r6
  20473c:	e8bd 40f8 	ldmia.w	sp!, {r3, r4, r5, r6, r7, lr}
  204740:	f001 badd 	b.w	205cfe <abc_sent>
  204744:	200003f4 	.word	0x200003f4

00204748 <input>:
  204748:	b538      	push	{r3, r4, r5, lr}
  20474a:	f7ff ff9b 	bl	204684 <chameleon_parse>
  20474e:	4605      	mov	r5, r0
  204750:	4809      	ldr	r0, [pc, #36]	; (204778 <input+0x30>)
  204752:	f001 fa1d 	bl	205b90 <list_head>
  204756:	4604      	mov	r4, r0
  204758:	b130      	cbz	r0, 204768 <input+0x20>
  20475a:	6863      	ldr	r3, [r4, #4]
  20475c:	b103      	cbz	r3, 204760 <input+0x18>
  20475e:	4798      	blx	r3
  204760:	4620      	mov	r0, r4
  204762:	f001 fa4e 	bl	205c02 <list_item_next>
  204766:	e7f6      	b.n	204756 <input+0xe>
  204768:	b125      	cbz	r5, 204774 <input+0x2c>
  20476a:	4628      	mov	r0, r5
  20476c:	e8bd 4038 	ldmia.w	sp!, {r3, r4, r5, lr}
  204770:	f001 bac0 	b.w	205cf4 <abc_input>
  204774:	bd38      	pop	{r3, r4, r5, pc}
  204776:	bf00      	nop
  204778:	200003f4 	.word	0x200003f4

0020477c <rime_output>:
  20477c:	b510      	push	{r4, lr}
  20477e:	4604      	mov	r4, r0
  204780:	f7ff ff8e 	bl	2046a0 <chameleon_create>
  204784:	b138      	cbz	r0, 204796 <rime_output+0x1a>
  204786:	f000 f827 	bl	2047d8 <packetbuf_compact>
  20478a:	4b03      	ldr	r3, [pc, #12]	; (204798 <rime_output+0x1c>)
  20478c:	4803      	ldr	r0, [pc, #12]	; (20479c <rime_output+0x20>)
  20478e:	4621      	mov	r1, r4
  204790:	689b      	ldr	r3, [r3, #8]
  204792:	4798      	blx	r3
  204794:	2001      	movs	r0, #1
  204796:	bd10      	pop	{r4, pc}
  204798:	002064f8 	.word	0x002064f8
  20479c:	00204715 	.word	0x00204715

002047a0 <netstack_init>:
  2047a0:	4b08      	ldr	r3, [pc, #32]	; (2047c4 <netstack_init+0x24>)
  2047a2:	b510      	push	{r4, lr}
  2047a4:	681b      	ldr	r3, [r3, #0]
  2047a6:	4798      	blx	r3
  2047a8:	4b07      	ldr	r3, [pc, #28]	; (2047c8 <netstack_init+0x28>)
  2047aa:	685b      	ldr	r3, [r3, #4]
  2047ac:	4798      	blx	r3
  2047ae:	4b07      	ldr	r3, [pc, #28]	; (2047cc <netstack_init+0x2c>)
  2047b0:	685b      	ldr	r3, [r3, #4]
  2047b2:	4798      	blx	r3
  2047b4:	4b06      	ldr	r3, [pc, #24]	; (2047d0 <netstack_init+0x30>)
  2047b6:	685b      	ldr	r3, [r3, #4]
  2047b8:	4798      	blx	r3
  2047ba:	e8bd 4010 	ldmia.w	sp!, {r4, lr}
  2047be:	4b05      	ldr	r3, [pc, #20]	; (2047d4 <netstack_init+0x34>)
  2047c0:	685b      	ldr	r3, [r3, #4]
  2047c2:	4718      	bx	r3
  2047c4:	002063d4 	.word	0x002063d4
  2047c8:	002064cc 	.word	0x002064cc
  2047cc:	002064f8 	.word	0x002064f8
  2047d0:	002064a4 	.word	0x002064a4
  2047d4:	00206498 	.word	0x00206498

002047d8 <packetbuf_compact>:
  2047d8:	b530      	push	{r4, r5, lr}
  2047da:	4b09      	ldr	r3, [pc, #36]	; (204800 <packetbuf_compact+0x28>)
  2047dc:	8819      	ldrh	r1, [r3, #0]
  2047de:	461a      	mov	r2, r3
  2047e0:	b169      	cbz	r1, 2047fe <packetbuf_compact+0x26>
  2047e2:	4b08      	ldr	r3, [pc, #32]	; (204804 <packetbuf_compact+0x2c>)
  2047e4:	4c08      	ldr	r4, [pc, #32]	; (204808 <packetbuf_compact+0x30>)
  2047e6:	8818      	ldrh	r0, [r3, #0]
  2047e8:	4421      	add	r1, r4
  2047ea:	3030      	adds	r0, #48	; 0x30
  2047ec:	2330      	movs	r3, #48	; 0x30
  2047ee:	4283      	cmp	r3, r0
  2047f0:	da03      	bge.n	2047fa <packetbuf_compact+0x22>
  2047f2:	5ccd      	ldrb	r5, [r1, r3]
  2047f4:	551d      	strb	r5, [r3, r4]
  2047f6:	3301      	adds	r3, #1
  2047f8:	e7f9      	b.n	2047ee <packetbuf_compact+0x16>
  2047fa:	2300      	movs	r3, #0
  2047fc:	8013      	strh	r3, [r2, #0]
  2047fe:	bd30      	pop	{r4, r5, pc}
  204800:	2000062e 	.word	0x2000062e
  204804:	2000062c 	.word	0x2000062c
  204808:	200003fc 	.word	0x200003fc

0020480c <packetbuf_copyto>:
  20480c:	b5f8      	push	{r3, r4, r5, r6, r7, lr}
  20480e:	4b0e      	ldr	r3, [pc, #56]	; (204848 <packetbuf_copyto+0x3c>)
  204810:	4a0e      	ldr	r2, [pc, #56]	; (20484c <packetbuf_copyto+0x40>)
  204812:	781b      	ldrb	r3, [r3, #0]
  204814:	8816      	ldrh	r6, [r2, #0]
  204816:	f1c3 0530 	rsb	r5, r3, #48	; 0x30
  20481a:	1974      	adds	r4, r6, r5
  20481c:	2c80      	cmp	r4, #128	; 0x80
  20481e:	4607      	mov	r7, r0
  204820:	dc0e      	bgt.n	204840 <packetbuf_copyto+0x34>
  204822:	490b      	ldr	r1, [pc, #44]	; (204850 <packetbuf_copyto+0x44>)
  204824:	462a      	mov	r2, r5
  204826:	4419      	add	r1, r3
  204828:	f001 f832 	bl	205890 <memcpy>
  20482c:	4a09      	ldr	r2, [pc, #36]	; (204854 <packetbuf_copyto+0x48>)
  20482e:	4b0a      	ldr	r3, [pc, #40]	; (204858 <packetbuf_copyto+0x4c>)
  204830:	6811      	ldr	r1, [r2, #0]
  204832:	881b      	ldrh	r3, [r3, #0]
  204834:	4632      	mov	r2, r6
  204836:	4419      	add	r1, r3
  204838:	1978      	adds	r0, r7, r5
  20483a:	f001 f829 	bl	205890 <memcpy>
  20483e:	e000      	b.n	204842 <packetbuf_copyto+0x36>
  204840:	2400      	movs	r4, #0
  204842:	4620      	mov	r0, r4
  204844:	bdf8      	pop	{r3, r4, r5, r6, r7, pc}
  204846:	bf00      	nop
  204848:	20000d6f 	.word	0x20000d6f
  20484c:	2000062c 	.word	0x2000062c
  204850:	200003fc 	.word	0x200003fc
  204854:	200003f8 	.word	0x200003f8
  204858:	2000062e 	.word	0x2000062e

0020485c <packetbuf_hdrreduce>:
  20485c:	b510      	push	{r4, lr}
  20485e:	4907      	ldr	r1, [pc, #28]	; (20487c <packetbuf_hdrreduce+0x20>)
  204860:	880b      	ldrh	r3, [r1, #0]
  204862:	4283      	cmp	r3, r0
  204864:	db08      	blt.n	204878 <packetbuf_hdrreduce+0x1c>
  204866:	4c06      	ldr	r4, [pc, #24]	; (204880 <packetbuf_hdrreduce+0x24>)
  204868:	b280      	uxth	r0, r0
  20486a:	8822      	ldrh	r2, [r4, #0]
  20486c:	4402      	add	r2, r0
  20486e:	1a18      	subs	r0, r3, r0
  204870:	8008      	strh	r0, [r1, #0]
  204872:	8022      	strh	r2, [r4, #0]
  204874:	2001      	movs	r0, #1
  204876:	bd10      	pop	{r4, pc}
  204878:	2000      	movs	r0, #0
  20487a:	bd10      	pop	{r4, pc}
  20487c:	2000062c 	.word	0x2000062c
  204880:	2000062e 	.word	0x2000062e

00204884 <packetbuf_set_datalen>:
  204884:	4b01      	ldr	r3, [pc, #4]	; (20488c <packetbuf_set_datalen+0x8>)
  204886:	8018      	strh	r0, [r3, #0]
  204888:	4770      	bx	lr
  20488a:	bf00      	nop
  20488c:	2000062c 	.word	0x2000062c

00204890 <packetbuf_dataptr>:
  204890:	4b02      	ldr	r3, [pc, #8]	; (20489c <packetbuf_dataptr+0xc>)
  204892:	8818      	ldrh	r0, [r3, #0]
  204894:	4b02      	ldr	r3, [pc, #8]	; (2048a0 <packetbuf_dataptr+0x10>)
  204896:	4418      	add	r0, r3
  204898:	4770      	bx	lr
  20489a:	bf00      	nop
  20489c:	2000062e 	.word	0x2000062e
  2048a0:	2000042c 	.word	0x2000042c

002048a4 <packetbuf_hdrptr>:
  2048a4:	4b02      	ldr	r3, [pc, #8]	; (2048b0 <packetbuf_hdrptr+0xc>)
  2048a6:	4803      	ldr	r0, [pc, #12]	; (2048b4 <packetbuf_hdrptr+0x10>)
  2048a8:	781b      	ldrb	r3, [r3, #0]
  2048aa:	4418      	add	r0, r3
  2048ac:	4770      	bx	lr
  2048ae:	bf00      	nop
  2048b0:	20000d6f 	.word	0x20000d6f
  2048b4:	200003fc 	.word	0x200003fc

002048b8 <packetbuf_datalen>:
  2048b8:	4b01      	ldr	r3, [pc, #4]	; (2048c0 <packetbuf_datalen+0x8>)
  2048ba:	8818      	ldrh	r0, [r3, #0]
  2048bc:	4770      	bx	lr
  2048be:	bf00      	nop
  2048c0:	2000062c 	.word	0x2000062c

002048c4 <packetbuf_hdrlen>:
  2048c4:	4b04      	ldr	r3, [pc, #16]	; (2048d8 <packetbuf_hdrlen+0x14>)
  2048c6:	7818      	ldrb	r0, [r3, #0]
  2048c8:	f1c0 0030 	rsb	r0, r0, #48	; 0x30
  2048cc:	f010 00ff 	ands.w	r0, r0, #255	; 0xff
  2048d0:	bf04      	itt	eq
  2048d2:	4b02      	ldreq	r3, [pc, #8]	; (2048dc <packetbuf_hdrlen+0x18>)
  2048d4:	7818      	ldrbeq	r0, [r3, #0]
  2048d6:	4770      	bx	lr
  2048d8:	20000d6f 	.word	0x20000d6f
  2048dc:	2000062e 	.word	0x2000062e

002048e0 <packetbuf_totlen>:
  2048e0:	b508      	push	{r3, lr}
  2048e2:	f7ff ffef 	bl	2048c4 <packetbuf_hdrlen>
  2048e6:	4b02      	ldr	r3, [pc, #8]	; (2048f0 <packetbuf_totlen+0x10>)
  2048e8:	881b      	ldrh	r3, [r3, #0]
  2048ea:	4418      	add	r0, r3
  2048ec:	b280      	uxth	r0, r0
  2048ee:	bd08      	pop	{r3, pc}
  2048f0:	2000062c 	.word	0x2000062c

002048f4 <packetbuf_hdralloc>:
  2048f4:	b510      	push	{r4, lr}
  2048f6:	4c08      	ldr	r4, [pc, #32]	; (204918 <packetbuf_hdralloc+0x24>)
  2048f8:	4601      	mov	r1, r0
  2048fa:	7822      	ldrb	r2, [r4, #0]
  2048fc:	4282      	cmp	r2, r0
  2048fe:	db08      	blt.n	204912 <packetbuf_hdralloc+0x1e>
  204900:	f7ff ffee 	bl	2048e0 <packetbuf_totlen>
  204904:	4408      	add	r0, r1
  204906:	2880      	cmp	r0, #128	; 0x80
  204908:	dc03      	bgt.n	204912 <packetbuf_hdralloc+0x1e>
  20490a:	1a52      	subs	r2, r2, r1
  20490c:	7022      	strb	r2, [r4, #0]
  20490e:	2001      	movs	r0, #1
  204910:	bd10      	pop	{r4, pc}
  204912:	2000      	movs	r0, #0
  204914:	bd10      	pop	{r4, pc}
  204916:	bf00      	nop
  204918:	20000d6f 	.word	0x20000d6f

0020491c <packetbuf_attr_clear>:
  20491c:	b538      	push	{r3, r4, r5, lr}
  20491e:	2300      	movs	r3, #0
  204920:	4619      	mov	r1, r3
  204922:	4a08      	ldr	r2, [pc, #32]	; (204944 <packetbuf_attr_clear+0x28>)
  204924:	f822 1013 	strh.w	r1, [r2, r3, lsl #1]
  204928:	3301      	adds	r3, #1
  20492a:	2b1a      	cmp	r3, #26
  20492c:	d1fa      	bne.n	204924 <packetbuf_attr_clear+0x8>
  20492e:	4d06      	ldr	r5, [pc, #24]	; (204948 <packetbuf_attr_clear+0x2c>)
  204930:	2400      	movs	r4, #0
  204932:	1928      	adds	r0, r5, r4
  204934:	4905      	ldr	r1, [pc, #20]	; (20494c <packetbuf_attr_clear+0x30>)
  204936:	3402      	adds	r4, #2
  204938:	f001 fb84 	bl	206044 <linkaddr_copy>
  20493c:	2c08      	cmp	r4, #8
  20493e:	d1f8      	bne.n	204932 <packetbuf_attr_clear+0x16>
  204940:	bd38      	pop	{r3, r4, r5, pc}
  204942:	bf00      	nop
  204944:	20000da0 	.word	0x20000da0
  204948:	20000d98 	.word	0x20000d98
  20494c:	00206518 	.word	0x00206518

00204950 <packetbuf_clear>:
  204950:	4a06      	ldr	r2, [pc, #24]	; (20496c <packetbuf_clear+0x1c>)
  204952:	2300      	movs	r3, #0
  204954:	8013      	strh	r3, [r2, #0]
  204956:	4a06      	ldr	r2, [pc, #24]	; (204970 <packetbuf_clear+0x20>)
  204958:	8013      	strh	r3, [r2, #0]
  20495a:	4b06      	ldr	r3, [pc, #24]	; (204974 <packetbuf_clear+0x24>)
  20495c:	2230      	movs	r2, #48	; 0x30
  20495e:	701a      	strb	r2, [r3, #0]
  204960:	4a05      	ldr	r2, [pc, #20]	; (204978 <packetbuf_clear+0x28>)
  204962:	4b06      	ldr	r3, [pc, #24]	; (20497c <packetbuf_clear+0x2c>)
  204964:	601a      	str	r2, [r3, #0]
  204966:	f7ff bfd9 	b.w	20491c <packetbuf_attr_clear>
  20496a:	bf00      	nop
  20496c:	2000062e 	.word	0x2000062e
  204970:	2000062c 	.word	0x2000062c
  204974:	20000d6f 	.word	0x20000d6f
  204978:	2000042c 	.word	0x2000042c
  20497c:	200003f8 	.word	0x200003f8

00204980 <packetbuf_copyfrom>:
  204980:	b538      	push	{r3, r4, r5, lr}
  204982:	460c      	mov	r4, r1
  204984:	4605      	mov	r5, r0
  204986:	f7ff ffe3 	bl	204950 <packetbuf_clear>
  20498a:	2c80      	cmp	r4, #128	; 0x80
  20498c:	4b05      	ldr	r3, [pc, #20]	; (2049a4 <packetbuf_copyfrom+0x24>)
  20498e:	bf28      	it	cs
  204990:	2480      	movcs	r4, #128	; 0x80
  204992:	4622      	mov	r2, r4
  204994:	4629      	mov	r1, r5
  204996:	6818      	ldr	r0, [r3, #0]
  204998:	f000 ff7a 	bl	205890 <memcpy>
  20499c:	4b02      	ldr	r3, [pc, #8]	; (2049a8 <packetbuf_copyfrom+0x28>)
  20499e:	4620      	mov	r0, r4
  2049a0:	801c      	strh	r4, [r3, #0]
  2049a2:	bd38      	pop	{r3, r4, r5, pc}
  2049a4:	200003f8 	.word	0x200003f8
  2049a8:	2000062c 	.word	0x2000062c

002049ac <packetbuf_attr_copyto>:
  2049ac:	b510      	push	{r4, lr}
  2049ae:	4b07      	ldr	r3, [pc, #28]	; (2049cc <packetbuf_attr_copyto+0x20>)
  2049b0:	f103 0234 	add.w	r2, r3, #52	; 0x34
  2049b4:	f853 4b04 	ldr.w	r4, [r3], #4
  2049b8:	4293      	cmp	r3, r2
  2049ba:	f840 4b04 	str.w	r4, [r0], #4
  2049be:	d1f9      	bne.n	2049b4 <packetbuf_attr_copyto+0x8>
  2049c0:	4a03      	ldr	r2, [pc, #12]	; (2049d0 <packetbuf_attr_copyto+0x24>)
  2049c2:	6813      	ldr	r3, [r2, #0]
  2049c4:	600b      	str	r3, [r1, #0]
  2049c6:	6853      	ldr	r3, [r2, #4]
  2049c8:	604b      	str	r3, [r1, #4]
  2049ca:	bd10      	pop	{r4, pc}
  2049cc:	20000da0 	.word	0x20000da0
  2049d0:	20000d98 	.word	0x20000d98

002049d4 <packetbuf_attr_copyfrom>:
  2049d4:	b510      	push	{r4, lr}
  2049d6:	4b07      	ldr	r3, [pc, #28]	; (2049f4 <packetbuf_attr_copyfrom+0x20>)
  2049d8:	f100 0234 	add.w	r2, r0, #52	; 0x34
  2049dc:	f850 4b04 	ldr.w	r4, [r0], #4
  2049e0:	4290      	cmp	r0, r2
  2049e2:	f843 4b04 	str.w	r4, [r3], #4
  2049e6:	d1f9      	bne.n	2049dc <packetbuf_attr_copyfrom+0x8>
  2049e8:	680b      	ldr	r3, [r1, #0]
  2049ea:	4a03      	ldr	r2, [pc, #12]	; (2049f8 <packetbuf_attr_copyfrom+0x24>)
  2049ec:	6013      	str	r3, [r2, #0]
  2049ee:	684b      	ldr	r3, [r1, #4]
  2049f0:	6053      	str	r3, [r2, #4]
  2049f2:	bd10      	pop	{r4, pc}
  2049f4:	20000da0 	.word	0x20000da0
  2049f8:	20000d98 	.word	0x20000d98

002049fc <packetbuf_set_attr>:
  2049fc:	4b02      	ldr	r3, [pc, #8]	; (204a08 <packetbuf_set_attr+0xc>)
  2049fe:	f823 1010 	strh.w	r1, [r3, r0, lsl #1]
  204a02:	2001      	movs	r0, #1
  204a04:	4770      	bx	lr
  204a06:	bf00      	nop
  204a08:	20000da0 	.word	0x20000da0

00204a0c <packetbuf_attr>:
  204a0c:	4b01      	ldr	r3, [pc, #4]	; (204a14 <packetbuf_attr+0x8>)
  204a0e:	f833 0010 	ldrh.w	r0, [r3, r0, lsl #1]
  204a12:	4770      	bx	lr
  204a14:	20000da0 	.word	0x20000da0

00204a18 <packetbuf_set_addr>:
  204a18:	b508      	push	{r3, lr}
  204a1a:	4b04      	ldr	r3, [pc, #16]	; (204a2c <packetbuf_set_addr+0x14>)
  204a1c:	381a      	subs	r0, #26
  204a1e:	eb03 0040 	add.w	r0, r3, r0, lsl #1
  204a22:	f001 fb0f 	bl	206044 <linkaddr_copy>
  204a26:	2001      	movs	r0, #1
  204a28:	bd08      	pop	{r3, pc}
  204a2a:	bf00      	nop
  204a2c:	20000d98 	.word	0x20000d98

00204a30 <packetbuf_addr>:
  204a30:	4b02      	ldr	r3, [pc, #8]	; (204a3c <packetbuf_addr+0xc>)
  204a32:	381a      	subs	r0, #26
  204a34:	eb03 0040 	add.w	r0, r3, r0, lsl #1
  204a38:	4770      	bx	lr
  204a3a:	bf00      	nop
  204a3c:	20000d98 	.word	0x20000d98

00204a40 <packetbuf_holds_broadcast>:
  204a40:	4901      	ldr	r1, [pc, #4]	; (204a48 <packetbuf_holds_broadcast+0x8>)
  204a42:	4802      	ldr	r0, [pc, #8]	; (204a4c <packetbuf_holds_broadcast+0xc>)
  204a44:	f001 bb01 	b.w	20604a <linkaddr_cmp>
  204a48:	00206518 	.word	0x00206518
  204a4c:	20000d9a 	.word	0x20000d9a

00204a50 <queuebuf_init>:
  204a50:	b508      	push	{r3, lr}
  204a52:	4804      	ldr	r0, [pc, #16]	; (204a64 <queuebuf_init+0x14>)
  204a54:	f001 f8d8 	bl	205c08 <memb_init>
  204a58:	e8bd 4008 	ldmia.w	sp!, {r3, lr}
  204a5c:	4802      	ldr	r0, [pc, #8]	; (204a68 <queuebuf_init+0x18>)
  204a5e:	f001 b8d3 	b.w	205c08 <memb_init>
  204a62:	bf00      	nop
  204a64:	200000ac 	.word	0x200000ac
  204a68:	200000a0 	.word	0x200000a0

00204a6c <queuebuf_new_from_packetbuf>:
  204a6c:	b538      	push	{r3, r4, r5, lr}
  204a6e:	480e      	ldr	r0, [pc, #56]	; (204aa8 <queuebuf_new_from_packetbuf+0x3c>)
  204a70:	f001 f8da 	bl	205c28 <memb_alloc>
  204a74:	4604      	mov	r4, r0
  204a76:	b1a8      	cbz	r0, 204aa4 <queuebuf_new_from_packetbuf+0x38>
  204a78:	480c      	ldr	r0, [pc, #48]	; (204aac <queuebuf_new_from_packetbuf+0x40>)
  204a7a:	f001 f8d5 	bl	205c28 <memb_alloc>
  204a7e:	4605      	mov	r5, r0
  204a80:	6020      	str	r0, [r4, #0]
  204a82:	b928      	cbnz	r0, 204a90 <queuebuf_new_from_packetbuf+0x24>
  204a84:	4621      	mov	r1, r4
  204a86:	4808      	ldr	r0, [pc, #32]	; (204aa8 <queuebuf_new_from_packetbuf+0x3c>)
  204a88:	f001 f8e2 	bl	205c50 <memb_free>
  204a8c:	4628      	mov	r0, r5
  204a8e:	bd38      	pop	{r3, r4, r5, pc}
  204a90:	f7ff febc 	bl	20480c <packetbuf_copyto>
  204a94:	f105 01b6 	add.w	r1, r5, #182	; 0xb6
  204a98:	f8a5 0080 	strh.w	r0, [r5, #128]	; 0x80
  204a9c:	f105 0082 	add.w	r0, r5, #130	; 0x82
  204aa0:	f7ff ff84 	bl	2049ac <packetbuf_attr_copyto>
  204aa4:	4620      	mov	r0, r4
  204aa6:	bd38      	pop	{r3, r4, r5, pc}
  204aa8:	200000a0 	.word	0x200000a0
  204aac:	200000ac 	.word	0x200000ac

00204ab0 <queuebuf_free>:
  204ab0:	b510      	push	{r4, lr}
  204ab2:	4601      	mov	r1, r0
  204ab4:	4604      	mov	r4, r0
  204ab6:	4807      	ldr	r0, [pc, #28]	; (204ad4 <queuebuf_free+0x24>)
  204ab8:	f001 f8e0 	bl	205c7c <memb_inmemb>
  204abc:	b148      	cbz	r0, 204ad2 <queuebuf_free+0x22>
  204abe:	6821      	ldr	r1, [r4, #0]
  204ac0:	4805      	ldr	r0, [pc, #20]	; (204ad8 <queuebuf_free+0x28>)
  204ac2:	f001 f8c5 	bl	205c50 <memb_free>
  204ac6:	4621      	mov	r1, r4
  204ac8:	e8bd 4010 	ldmia.w	sp!, {r4, lr}
  204acc:	4801      	ldr	r0, [pc, #4]	; (204ad4 <queuebuf_free+0x24>)
  204ace:	f001 b8bf 	b.w	205c50 <memb_free>
  204ad2:	bd10      	pop	{r4, pc}
  204ad4:	200000a0 	.word	0x200000a0
  204ad8:	200000ac 	.word	0x200000ac

00204adc <queuebuf_to_packetbuf>:
  204adc:	b510      	push	{r4, lr}
  204ade:	4601      	mov	r1, r0
  204ae0:	4604      	mov	r4, r0
  204ae2:	4809      	ldr	r0, [pc, #36]	; (204b08 <queuebuf_to_packetbuf+0x2c>)
  204ae4:	f001 f8ca 	bl	205c7c <memb_inmemb>
  204ae8:	b168      	cbz	r0, 204b06 <queuebuf_to_packetbuf+0x2a>
  204aea:	6824      	ldr	r4, [r4, #0]
  204aec:	f8b4 1080 	ldrh.w	r1, [r4, #128]	; 0x80
  204af0:	4620      	mov	r0, r4
  204af2:	f7ff ff45 	bl	204980 <packetbuf_copyfrom>
  204af6:	f104 01b6 	add.w	r1, r4, #182	; 0xb6
  204afa:	f104 0082 	add.w	r0, r4, #130	; 0x82
  204afe:	e8bd 4010 	ldmia.w	sp!, {r4, lr}
  204b02:	f7ff bf67 	b.w	2049d4 <packetbuf_attr_copyfrom>
  204b06:	bd10      	pop	{r4, pc}
  204b08:	200000a0 	.word	0x200000a0

00204b0c <input_packet>:
  204b0c:	4b01      	ldr	r3, [pc, #4]	; (204b14 <input_packet+0x8>)
  204b0e:	68db      	ldr	r3, [r3, #12]
  204b10:	4718      	bx	r3
  204b12:	bf00      	nop
  204b14:	002064f8 	.word	0x002064f8

00204b18 <on>:
  204b18:	4b01      	ldr	r3, [pc, #4]	; (204b20 <on+0x8>)
  204b1a:	695b      	ldr	r3, [r3, #20]
  204b1c:	4718      	bx	r3
  204b1e:	bf00      	nop
  204b20:	002064cc 	.word	0x002064cc

00204b24 <off>:
  204b24:	4b01      	ldr	r3, [pc, #4]	; (204b2c <off+0x8>)
  204b26:	699b      	ldr	r3, [r3, #24]
  204b28:	4718      	bx	r3
  204b2a:	bf00      	nop
  204b2c:	002064cc 	.word	0x002064cc

00204b30 <channel_check_interval>:
  204b30:	4b02      	ldr	r3, [pc, #8]	; (204b3c <channel_check_interval+0xc>)
  204b32:	69d8      	ldr	r0, [r3, #28]
  204b34:	b100      	cbz	r0, 204b38 <channel_check_interval+0x8>
  204b36:	4700      	bx	r0
  204b38:	4770      	bx	lr
  204b3a:	bf00      	nop
  204b3c:	002064cc 	.word	0x002064cc

00204b40 <transmit_packet_list>:
  204b40:	b513      	push	{r0, r1, r4, lr}
  204b42:	4604      	mov	r4, r0
  204b44:	b168      	cbz	r0, 204b62 <transmit_packet_list+0x22>
  204b46:	6b00      	ldr	r0, [r0, #48]	; 0x30
  204b48:	f001 f822 	bl	205b90 <list_head>
  204b4c:	4602      	mov	r2, r0
  204b4e:	b140      	cbz	r0, 204b62 <transmit_packet_list+0x22>
  204b50:	4621      	mov	r1, r4
  204b52:	4b05      	ldr	r3, [pc, #20]	; (204b68 <transmit_packet_list+0x28>)
  204b54:	4805      	ldr	r0, [pc, #20]	; (204b6c <transmit_packet_list+0x2c>)
  204b56:	68db      	ldr	r3, [r3, #12]
  204b58:	9301      	str	r3, [sp, #4]
  204b5a:	b002      	add	sp, #8
  204b5c:	e8bd 4010 	ldmia.w	sp!, {r4, lr}
  204b60:	4718      	bx	r3
  204b62:	b002      	add	sp, #8
  204b64:	bd10      	pop	{r4, pc}
  204b66:	bf00      	nop
  204b68:	002064cc 	.word	0x002064cc
  204b6c:	00204d85 	.word	0x00204d85

00204b70 <send_packet>:
  204b70:	e92d 41f0 	stmdb	sp!, {r4, r5, r6, r7, r8, lr}
  204b74:	4607      	mov	r7, r0
  204b76:	201b      	movs	r0, #27
  204b78:	4688      	mov	r8, r1
  204b7a:	f7ff ff59 	bl	204a30 <packetbuf_addr>
  204b7e:	4b4b      	ldr	r3, [pc, #300]	; (204cac <send_packet+0x13c>)
  204b80:	4605      	mov	r5, r0
  204b82:	781a      	ldrb	r2, [r3, #0]
  204b84:	4c4a      	ldr	r4, [pc, #296]	; (204cb0 <send_packet+0x140>)
  204b86:	b922      	cbnz	r2, 204b92 <send_packet+0x22>
  204b88:	2201      	movs	r2, #1
  204b8a:	701a      	strb	r2, [r3, #0]
  204b8c:	f7ff fbb6 	bl	2042fc <random_rand>
  204b90:	8020      	strh	r0, [r4, #0]
  204b92:	8823      	ldrh	r3, [r4, #0]
  204b94:	b913      	cbnz	r3, 204b9c <send_packet+0x2c>
  204b96:	4b46      	ldr	r3, [pc, #280]	; (204cb0 <send_packet+0x140>)
  204b98:	2201      	movs	r2, #1
  204b9a:	801a      	strh	r2, [r3, #0]
  204b9c:	8821      	ldrh	r1, [r4, #0]
  204b9e:	200a      	movs	r0, #10
  204ba0:	1c4b      	adds	r3, r1, #1
  204ba2:	8023      	strh	r3, [r4, #0]
  204ba4:	f7ff ff2a 	bl	2049fc <packetbuf_set_attr>
  204ba8:	4842      	ldr	r0, [pc, #264]	; (204cb4 <send_packet+0x144>)
  204baa:	f000 fff1 	bl	205b90 <list_head>
  204bae:	4604      	mov	r4, r0
  204bb0:	b140      	cbz	r0, 204bc4 <send_packet+0x54>
  204bb2:	4629      	mov	r1, r5
  204bb4:	1d20      	adds	r0, r4, #4
  204bb6:	f001 fa48 	bl	20604a <linkaddr_cmp>
  204bba:	b9e8      	cbnz	r0, 204bf8 <send_packet+0x88>
  204bbc:	4620      	mov	r0, r4
  204bbe:	f001 f820 	bl	205c02 <list_item_next>
  204bc2:	e7f4      	b.n	204bae <send_packet+0x3e>
  204bc4:	483c      	ldr	r0, [pc, #240]	; (204cb8 <send_packet+0x148>)
  204bc6:	f001 f82f 	bl	205c28 <memb_alloc>
  204bca:	4604      	mov	r4, r0
  204bcc:	b350      	cbz	r0, 204c24 <send_packet+0xb4>
  204bce:	4629      	mov	r1, r5
  204bd0:	1d20      	adds	r0, r4, #4
  204bd2:	f001 fa37 	bl	206044 <linkaddr_copy>
  204bd6:	2300      	movs	r3, #0
  204bd8:	f104 002c 	add.w	r0, r4, #44	; 0x2c
  204bdc:	6320      	str	r0, [r4, #48]	; 0x30
  204bde:	f884 3028 	strb.w	r3, [r4, #40]	; 0x28
  204be2:	f884 3029 	strb.w	r3, [r4, #41]	; 0x29
  204be6:	f884 302a 	strb.w	r3, [r4, #42]	; 0x2a
  204bea:	62e3      	str	r3, [r4, #44]	; 0x2c
  204bec:	f000 ffcd 	bl	205b8a <list_init>
  204bf0:	4621      	mov	r1, r4
  204bf2:	4830      	ldr	r0, [pc, #192]	; (204cb4 <send_packet+0x144>)
  204bf4:	f000 ffe9 	bl	205bca <list_add>
  204bf8:	6b20      	ldr	r0, [r4, #48]	; 0x30
  204bfa:	f000 fffb 	bl	205bf4 <list_length>
  204bfe:	2807      	cmp	r0, #7
  204c00:	dc10      	bgt.n	204c24 <send_packet+0xb4>
  204c02:	482e      	ldr	r0, [pc, #184]	; (204cbc <send_packet+0x14c>)
  204c04:	f001 f810 	bl	205c28 <memb_alloc>
  204c08:	4605      	mov	r5, r0
  204c0a:	b998      	cbnz	r0, 204c34 <send_packet+0xc4>
  204c0c:	6b20      	ldr	r0, [r4, #48]	; 0x30
  204c0e:	f000 fff1 	bl	205bf4 <list_length>
  204c12:	b938      	cbnz	r0, 204c24 <send_packet+0xb4>
  204c14:	4621      	mov	r1, r4
  204c16:	4827      	ldr	r0, [pc, #156]	; (204cb4 <send_packet+0x144>)
  204c18:	f000 ffc4 	bl	205ba4 <list_remove>
  204c1c:	4621      	mov	r1, r4
  204c1e:	4826      	ldr	r0, [pc, #152]	; (204cb8 <send_packet+0x148>)
  204c20:	f001 f816 	bl	205c50 <memb_free>
  204c24:	4641      	mov	r1, r8
  204c26:	4638      	mov	r0, r7
  204c28:	e8bd 41f0 	ldmia.w	sp!, {r4, r5, r6, r7, r8, lr}
  204c2c:	2301      	movs	r3, #1
  204c2e:	2204      	movs	r2, #4
  204c30:	f001 bb75 	b.w	20631e <mac_call_sent_callback>
  204c34:	4822      	ldr	r0, [pc, #136]	; (204cc0 <send_packet+0x150>)
  204c36:	f000 fff7 	bl	205c28 <memb_alloc>
  204c3a:	60a8      	str	r0, [r5, #8]
  204c3c:	b378      	cbz	r0, 204c9e <send_packet+0x12e>
  204c3e:	f7ff ff15 	bl	204a6c <queuebuf_new_from_packetbuf>
  204c42:	6068      	str	r0, [r5, #4]
  204c44:	b338      	cbz	r0, 204c96 <send_packet+0x126>
  204c46:	2009      	movs	r0, #9
  204c48:	68ae      	ldr	r6, [r5, #8]
  204c4a:	f7ff fedf 	bl	204a0c <packetbuf_attr>
  204c4e:	b910      	cbnz	r0, 204c56 <send_packet+0xe6>
  204c50:	2303      	movs	r3, #3
  204c52:	7233      	strb	r3, [r6, #8]
  204c54:	e003      	b.n	204c5e <send_packet+0xee>
  204c56:	2009      	movs	r0, #9
  204c58:	f7ff fed8 	bl	204a0c <packetbuf_attr>
  204c5c:	7230      	strb	r0, [r6, #8]
  204c5e:	e886 0180 	stmia.w	r6, {r7, r8}
  204c62:	200d      	movs	r0, #13
  204c64:	f7ff fed2 	bl	204a0c <packetbuf_attr>
  204c68:	2801      	cmp	r0, #1
  204c6a:	4629      	mov	r1, r5
  204c6c:	6b20      	ldr	r0, [r4, #48]	; 0x30
  204c6e:	d102      	bne.n	204c76 <send_packet+0x106>
  204c70:	f000 ffb8 	bl	205be4 <list_push>
  204c74:	e001      	b.n	204c7a <send_packet+0x10a>
  204c76:	f000 ffa8 	bl	205bca <list_add>
  204c7a:	6b20      	ldr	r0, [r4, #48]	; 0x30
  204c7c:	f000 ff88 	bl	205b90 <list_head>
  204c80:	4285      	cmp	r5, r0
  204c82:	d111      	bne.n	204ca8 <send_packet+0x138>
  204c84:	4623      	mov	r3, r4
  204c86:	f104 0008 	add.w	r0, r4, #8
  204c8a:	4a0e      	ldr	r2, [pc, #56]	; (204cc4 <send_packet+0x154>)
  204c8c:	2100      	movs	r1, #0
  204c8e:	e8bd 41f0 	ldmia.w	sp!, {r4, r5, r6, r7, r8, lr}
  204c92:	f7ff b849 	b.w	203d28 <ctimer_set>
  204c96:	68a9      	ldr	r1, [r5, #8]
  204c98:	4809      	ldr	r0, [pc, #36]	; (204cc0 <send_packet+0x150>)
  204c9a:	f000 ffd9 	bl	205c50 <memb_free>
  204c9e:	4629      	mov	r1, r5
  204ca0:	4806      	ldr	r0, [pc, #24]	; (204cbc <send_packet+0x14c>)
  204ca2:	f000 ffd5 	bl	205c50 <memb_free>
  204ca6:	e7b1      	b.n	204c0c <send_packet+0x9c>
  204ca8:	e8bd 81f0 	ldmia.w	sp!, {r4, r5, r6, r7, r8, pc}
  204cac:	20000d80 	.word	0x20000d80
  204cb0:	20000c20 	.word	0x20000c20
  204cb4:	2000052c 	.word	0x2000052c
  204cb8:	200000d0 	.word	0x200000d0
  204cbc:	200000c4 	.word	0x200000c4
  204cc0:	200000b8 	.word	0x200000b8
  204cc4:	00204b41 	.word	0x00204b41

00204cc8 <init>:
  204cc8:	b508      	push	{r3, lr}
  204cca:	4805      	ldr	r0, [pc, #20]	; (204ce0 <init+0x18>)
  204ccc:	f000 ff9c 	bl	205c08 <memb_init>
  204cd0:	4804      	ldr	r0, [pc, #16]	; (204ce4 <init+0x1c>)
  204cd2:	f000 ff99 	bl	205c08 <memb_init>
  204cd6:	e8bd 4008 	ldmia.w	sp!, {r3, lr}
  204cda:	4803      	ldr	r0, [pc, #12]	; (204ce8 <init+0x20>)
  204cdc:	f000 bf94 	b.w	205c08 <memb_init>
  204ce0:	200000c4 	.word	0x200000c4
  204ce4:	200000b8 	.word	0x200000b8
  204ce8:	200000d0 	.word	0x200000d0

00204cec <free_packet>:
  204cec:	b570      	push	{r4, r5, r6, lr}
  204cee:	4604      	mov	r4, r0
  204cf0:	4615      	mov	r5, r2
  204cf2:	460e      	mov	r6, r1
  204cf4:	2900      	cmp	r1, #0
  204cf6:	d038      	beq.n	204d6a <free_packet+0x7e>
  204cf8:	6b00      	ldr	r0, [r0, #48]	; 0x30
  204cfa:	f000 ff53 	bl	205ba4 <list_remove>
  204cfe:	6870      	ldr	r0, [r6, #4]
  204d00:	f7ff fed6 	bl	204ab0 <queuebuf_free>
  204d04:	68b1      	ldr	r1, [r6, #8]
  204d06:	4819      	ldr	r0, [pc, #100]	; (204d6c <free_packet+0x80>)
  204d08:	f000 ffa2 	bl	205c50 <memb_free>
  204d0c:	4631      	mov	r1, r6
  204d0e:	4818      	ldr	r0, [pc, #96]	; (204d70 <free_packet+0x84>)
  204d10:	f000 ff9e 	bl	205c50 <memb_free>
  204d14:	6b20      	ldr	r0, [r4, #48]	; 0x30
  204d16:	f000 ff3b 	bl	205b90 <list_head>
  204d1a:	f104 0608 	add.w	r6, r4, #8
  204d1e:	b1b8      	cbz	r0, 204d50 <free_packet+0x64>
  204d20:	2300      	movs	r3, #0
  204d22:	f884 3028 	strb.w	r3, [r4, #40]	; 0x28
  204d26:	f884 3029 	strb.w	r3, [r4, #41]	; 0x29
  204d2a:	f884 302a 	strb.w	r3, [r4, #42]	; 0x2a
  204d2e:	b13d      	cbz	r5, 204d40 <free_packet+0x54>
  204d30:	4b10      	ldr	r3, [pc, #64]	; (204d74 <free_packet+0x88>)
  204d32:	69db      	ldr	r3, [r3, #28]
  204d34:	4798      	blx	r3
  204d36:	2800      	cmp	r0, #0
  204d38:	bf14      	ite	ne
  204d3a:	4601      	movne	r1, r0
  204d3c:	2110      	moveq	r1, #16
  204d3e:	e000      	b.n	204d42 <free_packet+0x56>
  204d40:	4629      	mov	r1, r5
  204d42:	4623      	mov	r3, r4
  204d44:	4630      	mov	r0, r6
  204d46:	e8bd 4070 	ldmia.w	sp!, {r4, r5, r6, lr}
  204d4a:	4a0b      	ldr	r2, [pc, #44]	; (204d78 <free_packet+0x8c>)
  204d4c:	f7fe bfec 	b.w	203d28 <ctimer_set>
  204d50:	4630      	mov	r0, r6
  204d52:	f7fe fff3 	bl	203d3c <ctimer_stop>
  204d56:	4621      	mov	r1, r4
  204d58:	4808      	ldr	r0, [pc, #32]	; (204d7c <free_packet+0x90>)
  204d5a:	f000 ff23 	bl	205ba4 <list_remove>
  204d5e:	4621      	mov	r1, r4
  204d60:	e8bd 4070 	ldmia.w	sp!, {r4, r5, r6, lr}
  204d64:	4806      	ldr	r0, [pc, #24]	; (204d80 <free_packet+0x94>)
  204d66:	f000 bf73 	b.w	205c50 <memb_free>
  204d6a:	bd70      	pop	{r4, r5, r6, pc}
  204d6c:	200000b8 	.word	0x200000b8
  204d70:	200000c4 	.word	0x200000c4
  204d74:	002064cc 	.word	0x002064cc
  204d78:	00204b41 	.word	0x00204b41
  204d7c:	2000052c 	.word	0x2000052c
  204d80:	200000d0 	.word	0x200000d0

00204d84 <packet_sent>:
  204d84:	e92d 4ff1 	stmdb	sp!, {r0, r4, r5, r6, r7, r8, r9, sl, fp, lr}
  204d88:	460e      	mov	r6, r1
  204d8a:	4604      	mov	r4, r0
  204d8c:	2800      	cmp	r0, #0
  204d8e:	d06d      	beq.n	204e6c <packet_sent+0xe8>
  204d90:	2903      	cmp	r1, #3
  204d92:	d814      	bhi.n	204dbe <packet_sent+0x3a>
  204d94:	e8df f001 	tbb	[pc, r1]
  204d98:	0e020802 	.word	0x0e020802
  204d9c:	f890 3028 	ldrb.w	r3, [r0, #40]	; 0x28
  204da0:	441a      	add	r2, r3
  204da2:	f880 2028 	strb.w	r2, [r0, #40]	; 0x28
  204da6:	e00a      	b.n	204dbe <packet_sent+0x3a>
  204da8:	f890 3029 	ldrb.w	r3, [r0, #41]	; 0x29
  204dac:	441a      	add	r2, r3
  204dae:	f880 2029 	strb.w	r2, [r0, #41]	; 0x29
  204db2:	e004      	b.n	204dbe <packet_sent+0x3a>
  204db4:	f890 302a 	ldrb.w	r3, [r0, #42]	; 0x2a
  204db8:	441a      	add	r2, r3
  204dba:	f880 202a 	strb.w	r2, [r0, #42]	; 0x2a
  204dbe:	6b20      	ldr	r0, [r4, #48]	; 0x30
  204dc0:	f000 fee6 	bl	205b90 <list_head>
  204dc4:	4605      	mov	r5, r0
  204dc6:	2800      	cmp	r0, #0
  204dc8:	d050      	beq.n	204e6c <packet_sent+0xe8>
  204dca:	210a      	movs	r1, #10
  204dcc:	6868      	ldr	r0, [r5, #4]
  204dce:	f001 f94a 	bl	206066 <queuebuf_attr>
  204dd2:	4607      	mov	r7, r0
  204dd4:	200a      	movs	r0, #10
  204dd6:	f7ff fe19 	bl	204a0c <packetbuf_attr>
  204dda:	4287      	cmp	r7, r0
  204ddc:	d003      	beq.n	204de6 <packet_sent+0x62>
  204dde:	4628      	mov	r0, r5
  204de0:	f000 ff0f 	bl	205c02 <list_item_next>
  204de4:	e7ee      	b.n	204dc4 <packet_sent+0x40>
  204de6:	f8d5 8008 	ldr.w	r8, [r5, #8]
  204dea:	f1b8 0f00 	cmp.w	r8, #0
  204dee:	d03d      	beq.n	204e6c <packet_sent+0xe8>
  204df0:	e898 0c00 	ldmia.w	r8, {sl, fp}
  204df4:	1e73      	subs	r3, r6, #1
  204df6:	2b01      	cmp	r3, #1
  204df8:	f894 7028 	ldrb.w	r7, [r4, #40]	; 0x28
  204dfc:	d828      	bhi.n	204e50 <packet_sent+0xcc>
  204dfe:	4b1d      	ldr	r3, [pc, #116]	; (204e74 <packet_sent+0xf0>)
  204e00:	69db      	ldr	r3, [r3, #28]
  204e02:	4798      	blx	r3
  204e04:	2800      	cmp	r0, #0
  204e06:	bf14      	ite	ne
  204e08:	4681      	movne	r9, r0
  204e0a:	f04f 0910 	moveq.w	r9, #16
  204e0e:	f7ff fa75 	bl	2042fc <random_rand>
  204e12:	f894 2028 	ldrb.w	r2, [r4, #40]	; 0x28
  204e16:	f898 3008 	ldrb.w	r3, [r8, #8]
  204e1a:	429a      	cmp	r2, r3
  204e1c:	d218      	bcs.n	204e50 <packet_sent+0xcc>
  204e1e:	2f03      	cmp	r7, #3
  204e20:	bfa8      	it	ge
  204e22:	2703      	movge	r7, #3
  204e24:	2201      	movs	r2, #1
  204e26:	fa02 f307 	lsl.w	r3, r2, r7
  204e2a:	fb09 f303 	mul.w	r3, r9, r3
  204e2e:	fbb0 f2f3 	udiv	r2, r0, r3
  204e32:	fb03 0112 	mls	r1, r3, r2, r0
  204e36:	f104 0008 	add.w	r0, r4, #8
  204e3a:	4623      	mov	r3, r4
  204e3c:	4a0e      	ldr	r2, [pc, #56]	; (204e78 <packet_sent+0xf4>)
  204e3e:	4449      	add	r1, r9
  204e40:	f7fe ff72 	bl	203d28 <ctimer_set>
  204e44:	6868      	ldr	r0, [r5, #4]
  204e46:	b001      	add	sp, #4
  204e48:	e8bd 4ff0 	ldmia.w	sp!, {r4, r5, r6, r7, r8, r9, sl, fp, lr}
  204e4c:	f001 b905 	b.w	20605a <queuebuf_update_attr_from_packetbuf>
  204e50:	4632      	mov	r2, r6
  204e52:	4629      	mov	r1, r5
  204e54:	4620      	mov	r0, r4
  204e56:	f7ff ff49 	bl	204cec <free_packet>
  204e5a:	463b      	mov	r3, r7
  204e5c:	4632      	mov	r2, r6
  204e5e:	4659      	mov	r1, fp
  204e60:	4650      	mov	r0, sl
  204e62:	b001      	add	sp, #4
  204e64:	e8bd 4ff0 	ldmia.w	sp!, {r4, r5, r6, r7, r8, r9, sl, fp, lr}
  204e68:	f001 ba59 	b.w	20631e <mac_call_sent_callback>
  204e6c:	b001      	add	sp, #4
  204e6e:	e8bd 8ff0 	ldmia.w	sp!, {r4, r5, r6, r7, r8, r9, sl, fp, pc}
  204e72:	bf00      	nop
  204e74:	002064cc 	.word	0x002064cc
  204e78:	00204b41 	.word	0x00204b41

00204e7c <frame802154_get_pan_id>:
  204e7c:	4b01      	ldr	r3, [pc, #4]	; (204e84 <frame802154_get_pan_id+0x8>)
  204e7e:	8818      	ldrh	r0, [r3, #0]
  204e80:	4770      	bx	lr
  204e82:	bf00      	nop
  204e84:	200000ec 	.word	0x200000ec

00204e88 <frame802154_parse>:
  204e88:	e92d 41f0 	stmdb	sp!, {r4, r5, r6, r7, r8, lr}
  204e8c:	2901      	cmp	r1, #1
  204e8e:	b086      	sub	sp, #24
  204e90:	4606      	mov	r6, r0
  204e92:	460f      	mov	r7, r1
  204e94:	4614      	mov	r4, r2
  204e96:	f340 80a7 	ble.w	204fe8 <frame802154_parse+0x160>
  204e9a:	7803      	ldrb	r3, [r0, #0]
  204e9c:	f003 0207 	and.w	r2, r3, #7
  204ea0:	f88d 200c 	strb.w	r2, [sp, #12]
  204ea4:	f3c3 02c0 	ubfx	r2, r3, #3, #1
  204ea8:	f88d 200d 	strb.w	r2, [sp, #13]
  204eac:	f3c3 1200 	ubfx	r2, r3, #4, #1
  204eb0:	f88d 200e 	strb.w	r2, [sp, #14]
  204eb4:	f3c3 1240 	ubfx	r2, r3, #5, #1
  204eb8:	f3c3 1380 	ubfx	r3, r3, #6, #1
  204ebc:	f88d 3010 	strb.w	r3, [sp, #16]
  204ec0:	7843      	ldrb	r3, [r0, #1]
  204ec2:	f88d 200f 	strb.w	r2, [sp, #15]
  204ec6:	f3c3 0240 	ubfx	r2, r3, #1, #1
  204eca:	f88d 2012 	strb.w	r2, [sp, #18]
  204ece:	f3c3 0281 	ubfx	r2, r3, #2, #2
  204ed2:	f003 0501 	and.w	r5, r3, #1
  204ed6:	f88d 2013 	strb.w	r2, [sp, #19]
  204eda:	f3c3 1201 	ubfx	r2, r3, #4, #2
  204ede:	099b      	lsrs	r3, r3, #6
  204ee0:	f88d 3015 	strb.w	r3, [sp, #21]
  204ee4:	f88d 2014 	strb.w	r2, [sp, #20]
  204ee8:	f88d 5011 	strb.w	r5, [sp, #17]
  204eec:	ab03      	add	r3, sp, #12
  204eee:	cb03      	ldmia	r3!, {r0, r1}
  204ef0:	881b      	ldrh	r3, [r3, #0]
  204ef2:	6120      	str	r0, [r4, #16]
  204ef4:	6161      	str	r1, [r4, #20]
  204ef6:	8323      	strh	r3, [r4, #24]
  204ef8:	b10d      	cbz	r5, 204efe <frame802154_parse+0x76>
  204efa:	1cb5      	adds	r5, r6, #2
  204efc:	e002      	b.n	204f04 <frame802154_parse+0x7c>
  204efe:	78b3      	ldrb	r3, [r6, #2]
  204f00:	1cf5      	adds	r5, r6, #3
  204f02:	76a3      	strb	r3, [r4, #26]
  204f04:	aa02      	add	r2, sp, #8
  204f06:	a901      	add	r1, sp, #4
  204f08:	a803      	add	r0, sp, #12
  204f0a:	f001 f8b2 	bl	206072 <frame802154_has_panid>
  204f0e:	f89d 8013 	ldrb.w	r8, [sp, #19]
  204f12:	f1b8 0f00 	cmp.w	r8, #0
  204f16:	d023      	beq.n	204f60 <frame802154_parse+0xd8>
  204f18:	9b02      	ldr	r3, [sp, #8]
  204f1a:	b123      	cbz	r3, 204f26 <frame802154_parse+0x9e>
  204f1c:	786a      	ldrb	r2, [r5, #1]
  204f1e:	f815 3b02 	ldrb.w	r3, [r5], #2
  204f22:	eb03 2302 	add.w	r3, r3, r2, lsl #8
  204f26:	f1b8 0f02 	cmp.w	r8, #2
  204f2a:	83a3      	strh	r3, [r4, #28]
  204f2c:	d109      	bne.n	204f42 <frame802154_parse+0xba>
  204f2e:	4930      	ldr	r1, [pc, #192]	; (204ff0 <frame802154_parse+0x168>)
  204f30:	4620      	mov	r0, r4
  204f32:	f001 f887 	bl	206044 <linkaddr_copy>
  204f36:	786b      	ldrb	r3, [r5, #1]
  204f38:	7023      	strb	r3, [r4, #0]
  204f3a:	f815 3b02 	ldrb.w	r3, [r5], #2
  204f3e:	7063      	strb	r3, [r4, #1]
  204f40:	e014      	b.n	204f6c <frame802154_parse+0xe4>
  204f42:	f1b8 0f03 	cmp.w	r8, #3
  204f46:	d111      	bne.n	204f6c <frame802154_parse+0xe4>
  204f48:	f105 0208 	add.w	r2, r5, #8
  204f4c:	4613      	mov	r3, r2
  204f4e:	1e61      	subs	r1, r4, #1
  204f50:	f813 0d01 	ldrb.w	r0, [r3, #-1]!
  204f54:	42ab      	cmp	r3, r5
  204f56:	f801 0f01 	strb.w	r0, [r1, #1]!
  204f5a:	d1f9      	bne.n	204f50 <frame802154_parse+0xc8>
  204f5c:	4615      	mov	r5, r2
  204f5e:	e005      	b.n	204f6c <frame802154_parse+0xe4>
  204f60:	4923      	ldr	r1, [pc, #140]	; (204ff0 <frame802154_parse+0x168>)
  204f62:	4620      	mov	r0, r4
  204f64:	f001 f86e 	bl	206044 <linkaddr_copy>
  204f68:	f8a4 801c 	strh.w	r8, [r4, #28]
  204f6c:	f89d 8015 	ldrb.w	r8, [sp, #21]
  204f70:	f1b8 0f00 	cmp.w	r8, #0
  204f74:	d02b      	beq.n	204fce <frame802154_parse+0x146>
  204f76:	9b01      	ldr	r3, [sp, #4]
  204f78:	b153      	cbz	r3, 204f90 <frame802154_parse+0x108>
  204f7a:	786a      	ldrb	r2, [r5, #1]
  204f7c:	f815 3b02 	ldrb.w	r3, [r5], #2
  204f80:	eb03 2302 	add.w	r3, r3, r2, lsl #8
  204f84:	9a02      	ldr	r2, [sp, #8]
  204f86:	b29b      	uxth	r3, r3
  204f88:	83e3      	strh	r3, [r4, #30]
  204f8a:	b91a      	cbnz	r2, 204f94 <frame802154_parse+0x10c>
  204f8c:	83a3      	strh	r3, [r4, #28]
  204f8e:	e001      	b.n	204f94 <frame802154_parse+0x10c>
  204f90:	8ba3      	ldrh	r3, [r4, #28]
  204f92:	83e3      	strh	r3, [r4, #30]
  204f94:	f1b8 0f02 	cmp.w	r8, #2
  204f98:	d10a      	bne.n	204fb0 <frame802154_parse+0x128>
  204f9a:	4915      	ldr	r1, [pc, #84]	; (204ff0 <frame802154_parse+0x168>)
  204f9c:	f104 0008 	add.w	r0, r4, #8
  204fa0:	f001 f850 	bl	206044 <linkaddr_copy>
  204fa4:	786b      	ldrb	r3, [r5, #1]
  204fa6:	7223      	strb	r3, [r4, #8]
  204fa8:	f815 3b02 	ldrb.w	r3, [r5], #2
  204fac:	7263      	strb	r3, [r4, #9]
  204fae:	e015      	b.n	204fdc <frame802154_parse+0x154>
  204fb0:	f1b8 0f03 	cmp.w	r8, #3
  204fb4:	d112      	bne.n	204fdc <frame802154_parse+0x154>
  204fb6:	f105 0208 	add.w	r2, r5, #8
  204fba:	4613      	mov	r3, r2
  204fbc:	1de1      	adds	r1, r4, #7
  204fbe:	f813 0d01 	ldrb.w	r0, [r3, #-1]!
  204fc2:	429d      	cmp	r5, r3
  204fc4:	f801 0f01 	strb.w	r0, [r1, #1]!
  204fc8:	d1f9      	bne.n	204fbe <frame802154_parse+0x136>
  204fca:	4615      	mov	r5, r2
  204fcc:	e006      	b.n	204fdc <frame802154_parse+0x154>
  204fce:	4908      	ldr	r1, [pc, #32]	; (204ff0 <frame802154_parse+0x168>)
  204fd0:	f104 0008 	add.w	r0, r4, #8
  204fd4:	f001 f836 	bl	206044 <linkaddr_copy>
  204fd8:	f8a4 801e 	strh.w	r8, [r4, #30]
  204fdc:	1ba8      	subs	r0, r5, r6
  204fde:	1a3b      	subs	r3, r7, r0
  204fe0:	4287      	cmp	r7, r0
  204fe2:	63e3      	str	r3, [r4, #60]	; 0x3c
  204fe4:	63a5      	str	r5, [r4, #56]	; 0x38
  204fe6:	da00      	bge.n	204fea <frame802154_parse+0x162>
  204fe8:	2000      	movs	r0, #0
  204fea:	b006      	add	sp, #24
  204fec:	e8bd 81f0 	ldmia.w	sp!, {r4, r5, r6, r7, r8, pc}
  204ff0:	00206518 	.word	0x00206518

00204ff4 <create_frame.isra.0>:
  204ff4:	b530      	push	{r4, r5, lr}
  204ff6:	b091      	sub	sp, #68	; 0x44
  204ff8:	4605      	mov	r5, r0
  204ffa:	f7ff ff3f 	bl	204e7c <frame802154_get_pan_id>
  204ffe:	f64f 73ff 	movw	r3, #65535	; 0xffff
  205002:	4298      	cmp	r0, r3
  205004:	d102      	bne.n	20500c <create_frame.isra.0+0x18>
  205006:	f04f 30ff 	mov.w	r0, #4294967295	; 0xffffffff
  20500a:	e07b      	b.n	205104 <create_frame.isra.0+0x110>
  20500c:	2240      	movs	r2, #64	; 0x40
  20500e:	2100      	movs	r1, #0
  205010:	4668      	mov	r0, sp
  205012:	f000 fcb3 	bl	20597c <memset>
  205016:	4b3c      	ldr	r3, [pc, #240]	; (205108 <create_frame.isra.0+0x114>)
  205018:	781a      	ldrb	r2, [r3, #0]
  20501a:	b92a      	cbnz	r2, 205028 <create_frame.isra.0+0x34>
  20501c:	2201      	movs	r2, #1
  20501e:	701a      	strb	r2, [r3, #0]
  205020:	f7ff f96c 	bl	2042fc <random_rand>
  205024:	4b39      	ldr	r3, [pc, #228]	; (20510c <create_frame.isra.0+0x118>)
  205026:	7018      	strb	r0, [r3, #0]
  205028:	2014      	movs	r0, #20
  20502a:	f7ff fcef 	bl	204a0c <packetbuf_attr>
  20502e:	f88d 0010 	strb.w	r0, [sp, #16]
  205032:	2013      	movs	r0, #19
  205034:	f7ff fcea 	bl	204a0c <packetbuf_attr>
  205038:	f88d 0012 	strb.w	r0, [sp, #18]
  20503c:	f7ff fd00 	bl	204a40 <packetbuf_holds_broadcast>
  205040:	b118      	cbz	r0, 20504a <create_frame.isra.0+0x56>
  205042:	2300      	movs	r3, #0
  205044:	f88d 3013 	strb.w	r3, [sp, #19]
  205048:	e004      	b.n	205054 <create_frame.isra.0+0x60>
  20504a:	200b      	movs	r0, #11
  20504c:	f7ff fcde 	bl	204a0c <packetbuf_attr>
  205050:	f88d 0013 	strb.w	r0, [sp, #19]
  205054:	2300      	movs	r3, #0
  205056:	2401      	movs	r4, #1
  205058:	f88d 3014 	strb.w	r3, [sp, #20]
  20505c:	f88d 3015 	strb.w	r3, [sp, #21]
  205060:	f88d 4018 	strb.w	r4, [sp, #24]
  205064:	b1ad      	cbz	r5, 205092 <create_frame.isra.0+0x9e>
  205066:	200a      	movs	r0, #10
  205068:	f7ff fcd0 	bl	204a0c <packetbuf_attr>
  20506c:	b128      	cbz	r0, 20507a <create_frame.isra.0+0x86>
  20506e:	200a      	movs	r0, #10
  205070:	f7ff fccc 	bl	204a0c <packetbuf_attr>
  205074:	f88d 001a 	strb.w	r0, [sp, #26]
  205078:	e00b      	b.n	205092 <create_frame.isra.0+0x9e>
  20507a:	4b24      	ldr	r3, [pc, #144]	; (20510c <create_frame.isra.0+0x118>)
  20507c:	781a      	ldrb	r2, [r3, #0]
  20507e:	b902      	cbnz	r2, 205082 <create_frame.isra.0+0x8e>
  205080:	701c      	strb	r4, [r3, #0]
  205082:	7819      	ldrb	r1, [r3, #0]
  205084:	200a      	movs	r0, #10
  205086:	1c4a      	adds	r2, r1, #1
  205088:	701a      	strb	r2, [r3, #0]
  20508a:	f88d 101a 	strb.w	r1, [sp, #26]
  20508e:	f7ff fcb5 	bl	2049fc <packetbuf_set_attr>
  205092:	2402      	movs	r4, #2
  205094:	f88d 4019 	strb.w	r4, [sp, #25]
  205098:	f7ff fef0 	bl	204e7c <frame802154_get_pan_id>
  20509c:	f8ad 001c 	strh.w	r0, [sp, #28]
  2050a0:	f7ff fcce 	bl	204a40 <packetbuf_holds_broadcast>
  2050a4:	b138      	cbz	r0, 2050b6 <create_frame.isra.0+0xc2>
  2050a6:	23ff      	movs	r3, #255	; 0xff
  2050a8:	f88d 4017 	strb.w	r4, [sp, #23]
  2050ac:	f88d 3000 	strb.w	r3, [sp]
  2050b0:	f88d 3001 	strb.w	r3, [sp, #1]
  2050b4:	e008      	b.n	2050c8 <create_frame.isra.0+0xd4>
  2050b6:	201b      	movs	r0, #27
  2050b8:	f7ff fcba 	bl	204a30 <packetbuf_addr>
  2050bc:	4601      	mov	r1, r0
  2050be:	4668      	mov	r0, sp
  2050c0:	f000 ffc0 	bl	206044 <linkaddr_copy>
  2050c4:	f88d 4017 	strb.w	r4, [sp, #23]
  2050c8:	f7ff fed8 	bl	204e7c <frame802154_get_pan_id>
  2050cc:	4910      	ldr	r1, [pc, #64]	; (205110 <create_frame.isra.0+0x11c>)
  2050ce:	f8ad 001e 	strh.w	r0, [sp, #30]
  2050d2:	a802      	add	r0, sp, #8
  2050d4:	f000 ffb6 	bl	206044 <linkaddr_copy>
  2050d8:	f7ff fbda 	bl	204890 <packetbuf_dataptr>
  2050dc:	900e      	str	r0, [sp, #56]	; 0x38
  2050de:	f7ff fbeb 	bl	2048b8 <packetbuf_datalen>
  2050e2:	900f      	str	r0, [sp, #60]	; 0x3c
  2050e4:	4668      	mov	r0, sp
  2050e6:	f001 f839 	bl	20615c <frame802154_hdrlen>
  2050ea:	4604      	mov	r4, r0
  2050ec:	b14d      	cbz	r5, 205102 <create_frame.isra.0+0x10e>
  2050ee:	f7ff fc01 	bl	2048f4 <packetbuf_hdralloc>
  2050f2:	2800      	cmp	r0, #0
  2050f4:	d087      	beq.n	205006 <create_frame.isra.0+0x12>
  2050f6:	f7ff fbd5 	bl	2048a4 <packetbuf_hdrptr>
  2050fa:	4601      	mov	r1, r0
  2050fc:	4668      	mov	r0, sp
  2050fe:	f001 f846 	bl	20618e <frame802154_create>
  205102:	4620      	mov	r0, r4
  205104:	b011      	add	sp, #68	; 0x44
  205106:	bd30      	pop	{r4, r5, pc}
  205108:	20000d94 	.word	0x20000d94
  20510c:	20000d93 	.word	0x20000d93
  205110:	20000d96 	.word	0x20000d96

00205114 <mac_sequence_is_duplicate>:
  205114:	b570      	push	{r4, r5, r6, lr}
  205116:	4e0b      	ldr	r6, [pc, #44]	; (205144 <mac_sequence_is_duplicate+0x30>)
  205118:	2400      	movs	r4, #0
  20511a:	201a      	movs	r0, #26
  20511c:	eb06 0584 	add.w	r5, r6, r4, lsl #2
  205120:	f7ff fc86 	bl	204a30 <packetbuf_addr>
  205124:	4629      	mov	r1, r5
  205126:	f000 ff90 	bl	20604a <linkaddr_cmp>
  20512a:	b138      	cbz	r0, 20513c <mac_sequence_is_duplicate+0x28>
  20512c:	200a      	movs	r0, #10
  20512e:	f7ff fc6d 	bl	204a0c <packetbuf_attr>
  205132:	78ab      	ldrb	r3, [r5, #2]
  205134:	1a1b      	subs	r3, r3, r0
  205136:	4258      	negs	r0, r3
  205138:	4158      	adcs	r0, r3
  20513a:	bd70      	pop	{r4, r5, r6, pc}
  20513c:	3401      	adds	r4, #1
  20513e:	2c10      	cmp	r4, #16
  205140:	d1eb      	bne.n	20511a <mac_sequence_is_duplicate+0x6>
  205142:	bd70      	pop	{r4, r5, r6, pc}
  205144:	20000c22 	.word	0x20000c22

00205148 <mac_sequence_register_seqno>:
  205148:	b570      	push	{r4, r5, r6, lr}
  20514a:	4e14      	ldr	r6, [pc, #80]	; (20519c <mac_sequence_register_seqno+0x54>)
  20514c:	2400      	movs	r4, #0
  20514e:	201a      	movs	r0, #26
  205150:	f7ff fc6e 	bl	204a30 <packetbuf_addr>
  205154:	eb06 0184 	add.w	r1, r6, r4, lsl #2
  205158:	f000 ff77 	bl	20604a <linkaddr_cmp>
  20515c:	4d0f      	ldr	r5, [pc, #60]	; (20519c <mac_sequence_register_seqno+0x54>)
  20515e:	1c63      	adds	r3, r4, #1
  205160:	b910      	cbnz	r0, 205168 <mac_sequence_register_seqno+0x20>
  205162:	2b10      	cmp	r3, #16
  205164:	461c      	mov	r4, r3
  205166:	d1f2      	bne.n	20514e <mac_sequence_register_seqno+0x6>
  205168:	1e5a      	subs	r2, r3, #1
  20516a:	eb05 0383 	add.w	r3, r5, r3, lsl #2
  20516e:	1f19      	subs	r1, r3, #4
  205170:	b132      	cbz	r2, 205180 <mac_sequence_register_seqno+0x38>
  205172:	f853 0c08 	ldr.w	r0, [r3, #-8]
  205176:	3a01      	subs	r2, #1
  205178:	f843 0c04 	str.w	r0, [r3, #-4]
  20517c:	460b      	mov	r3, r1
  20517e:	e7f6      	b.n	20516e <mac_sequence_register_seqno+0x26>
  205180:	200a      	movs	r0, #10
  205182:	f7ff fc43 	bl	204a0c <packetbuf_attr>
  205186:	70a8      	strb	r0, [r5, #2]
  205188:	201a      	movs	r0, #26
  20518a:	f7ff fc51 	bl	204a30 <packetbuf_addr>
  20518e:	e8bd 4070 	ldmia.w	sp!, {r4, r5, r6, lr}
  205192:	4601      	mov	r1, r0
  205194:	4801      	ldr	r0, [pc, #4]	; (20519c <mac_sequence_register_seqno+0x54>)
  205196:	f000 bf55 	b.w	206044 <linkaddr_copy>
  20519a:	bf00      	nop
  20519c:	20000c22 	.word	0x20000c22

002051a0 <on>:
  2051a0:	4b01      	ldr	r3, [pc, #4]	; (2051a8 <on+0x8>)
  2051a2:	6a1b      	ldr	r3, [r3, #32]
  2051a4:	4718      	bx	r3
  2051a6:	bf00      	nop
  2051a8:	002063d4 	.word	0x002063d4

002051ac <send_one_packet>:
  2051ac:	e92d 47ff 	stmdb	sp!, {r0, r1, r2, r3, r4, r5, r6, r7, r8, r9, sl, lr}
  2051b0:	4606      	mov	r6, r0
  2051b2:	460f      	mov	r7, r1
  2051b4:	201a      	movs	r0, #26
  2051b6:	4941      	ldr	r1, [pc, #260]	; (2052bc <send_one_packet+0x110>)
  2051b8:	f7ff fc2e 	bl	204a18 <packetbuf_set_addr>
  2051bc:	2101      	movs	r1, #1
  2051be:	200b      	movs	r0, #11
  2051c0:	f7ff fc1c 	bl	2049fc <packetbuf_set_attr>
  2051c4:	4b3e      	ldr	r3, [pc, #248]	; (2052c0 <send_one_packet+0x114>)
  2051c6:	685b      	ldr	r3, [r3, #4]
  2051c8:	4798      	blx	r3
  2051ca:	2800      	cmp	r0, #0
  2051cc:	db6a      	blt.n	2052a4 <send_one_packet+0xf8>
  2051ce:	f7ff fb69 	bl	2048a4 <packetbuf_hdrptr>
  2051d2:	4c3c      	ldr	r4, [pc, #240]	; (2052c4 <send_one_packet+0x118>)
  2051d4:	f890 8002 	ldrb.w	r8, [r0, #2]
  2051d8:	6865      	ldr	r5, [r4, #4]
  2051da:	f7ff fb63 	bl	2048a4 <packetbuf_hdrptr>
  2051de:	4681      	mov	r9, r0
  2051e0:	f7ff fb7e 	bl	2048e0 <packetbuf_totlen>
  2051e4:	4601      	mov	r1, r0
  2051e6:	4648      	mov	r0, r9
  2051e8:	47a8      	blx	r5
  2051ea:	f7ff fc29 	bl	204a40 <packetbuf_holds_broadcast>
  2051ee:	f8d4 9018 	ldr.w	r9, [r4, #24]
  2051f2:	4605      	mov	r5, r0
  2051f4:	47c8      	blx	r9
  2051f6:	2800      	cmp	r0, #0
  2051f8:	d151      	bne.n	20529e <send_one_packet+0xf2>
  2051fa:	b15d      	cbz	r5, 205214 <send_one_packet+0x68>
  2051fc:	68a3      	ldr	r3, [r4, #8]
  2051fe:	9301      	str	r3, [sp, #4]
  205200:	f7ff fb6e 	bl	2048e0 <packetbuf_totlen>
  205204:	9b01      	ldr	r3, [sp, #4]
  205206:	4798      	blx	r3
  205208:	b148      	cbz	r0, 20521e <send_one_packet+0x72>
  20520a:	2802      	cmp	r0, #2
  20520c:	bf0c      	ite	eq
  20520e:	2201      	moveq	r2, #1
  205210:	2204      	movne	r2, #4
  205212:	e045      	b.n	2052a0 <send_one_packet+0xf4>
  205214:	69e3      	ldr	r3, [r4, #28]
  205216:	4798      	blx	r3
  205218:	2800      	cmp	r0, #0
  20521a:	d140      	bne.n	20529e <send_one_packet+0xf2>
  20521c:	e7ee      	b.n	2051fc <send_one_packet+0x50>
  20521e:	b115      	cbz	r5, 205226 <send_one_packet+0x7a>
  205220:	2200      	movs	r2, #0
  205222:	2401      	movs	r4, #1
  205224:	e040      	b.n	2052a8 <send_one_packet+0xfc>
  205226:	f7fd fa03 	bl	202630 <rtimer_arch_now>
  20522a:	4682      	mov	sl, r0
  20522c:	f7fd fb88 	bl	202940 <watchdog_periodic>
  205230:	f06f 050c 	mvn.w	r5, #12
  205234:	ebca 0505 	rsb	r5, sl, r5
  205238:	f7fd f9fa 	bl	202630 <rtimer_arch_now>
  20523c:	42c5      	cmn	r5, r0
  20523e:	d4fb      	bmi.n	205238 <send_one_packet+0x8c>
  205240:	47c8      	blx	r9
  205242:	b148      	cbz	r0, 205258 <send_one_packet+0xac>
  205244:	f7fd f9f4 	bl	202630 <rtimer_arch_now>
  205248:	4681      	mov	r9, r0
  20524a:	f06f 0514 	mvn.w	r5, #20
  20524e:	f7fd fb77 	bl	202940 <watchdog_periodic>
  205252:	ebc9 0505 	rsb	r5, r9, r5
  205256:	e009      	b.n	20526c <send_one_packet+0xc0>
  205258:	69e3      	ldr	r3, [r4, #28]
  20525a:	4798      	blx	r3
  20525c:	2800      	cmp	r0, #0
  20525e:	d1f1      	bne.n	205244 <send_one_packet+0x98>
  205260:	4b18      	ldr	r3, [pc, #96]	; (2052c4 <send_one_packet+0x118>)
  205262:	695b      	ldr	r3, [r3, #20]
  205264:	4798      	blx	r3
  205266:	2800      	cmp	r0, #0
  205268:	d0ec      	beq.n	205244 <send_one_packet+0x98>
  20526a:	e016      	b.n	20529a <send_one_packet+0xee>
  20526c:	f7fd f9e0 	bl	202630 <rtimer_arch_now>
  205270:	42c5      	cmn	r5, r0
  205272:	d4fb      	bmi.n	20526c <send_one_packet+0xc0>
  205274:	69e3      	ldr	r3, [r4, #28]
  205276:	4798      	blx	r3
  205278:	b178      	cbz	r0, 20529a <send_one_packet+0xee>
  20527a:	4b12      	ldr	r3, [pc, #72]	; (2052c4 <send_one_packet+0x118>)
  20527c:	2103      	movs	r1, #3
  20527e:	a803      	add	r0, sp, #12
  205280:	691b      	ldr	r3, [r3, #16]
  205282:	4798      	blx	r3
  205284:	2803      	cmp	r0, #3
  205286:	d10a      	bne.n	20529e <send_one_packet+0xf2>
  205288:	f89d 200e 	ldrb.w	r2, [sp, #14]
  20528c:	ebb2 0208 	subs.w	r2, r2, r8
  205290:	bf18      	it	ne
  205292:	2201      	movne	r2, #1
  205294:	2a00      	cmp	r2, #0
  205296:	d0c3      	beq.n	205220 <send_one_packet+0x74>
  205298:	e002      	b.n	2052a0 <send_one_packet+0xf4>
  20529a:	2202      	movs	r2, #2
  20529c:	e000      	b.n	2052a0 <send_one_packet+0xf4>
  20529e:	2201      	movs	r2, #1
  2052a0:	2400      	movs	r4, #0
  2052a2:	e001      	b.n	2052a8 <send_one_packet+0xfc>
  2052a4:	2205      	movs	r2, #5
  2052a6:	e7fb      	b.n	2052a0 <send_one_packet+0xf4>
  2052a8:	4630      	mov	r0, r6
  2052aa:	2301      	movs	r3, #1
  2052ac:	4639      	mov	r1, r7
  2052ae:	f001 f836 	bl	20631e <mac_call_sent_callback>
  2052b2:	4620      	mov	r0, r4
  2052b4:	b004      	add	sp, #16
  2052b6:	e8bd 87f0 	ldmia.w	sp!, {r4, r5, r6, r7, r8, r9, sl, pc}
  2052ba:	bf00      	nop
  2052bc:	20000d96 	.word	0x20000d96
  2052c0:	002064ec 	.word	0x002064ec
  2052c4:	002063d4 	.word	0x002063d4

002052c8 <off>:
  2052c8:	b082      	sub	sp, #8
  2052ca:	4b04      	ldr	r3, [pc, #16]	; (2052dc <off+0x14>)
  2052cc:	b108      	cbz	r0, 2052d2 <off+0xa>
  2052ce:	6a1b      	ldr	r3, [r3, #32]
  2052d0:	e000      	b.n	2052d4 <off+0xc>
  2052d2:	6a5b      	ldr	r3, [r3, #36]	; 0x24
  2052d4:	9301      	str	r3, [sp, #4]
  2052d6:	b002      	add	sp, #8
  2052d8:	4718      	bx	r3
  2052da:	bf00      	nop
  2052dc:	002063d4 	.word	0x002063d4

002052e0 <packet_input>:
  2052e0:	b507      	push	{r0, r1, r2, lr}
  2052e2:	f7ff fae9 	bl	2048b8 <packetbuf_datalen>
  2052e6:	2803      	cmp	r0, #3
  2052e8:	d01b      	beq.n	205322 <packet_input+0x42>
  2052ea:	4b0f      	ldr	r3, [pc, #60]	; (205328 <packet_input+0x48>)
  2052ec:	689b      	ldr	r3, [r3, #8]
  2052ee:	4798      	blx	r3
  2052f0:	2800      	cmp	r0, #0
  2052f2:	db16      	blt.n	205322 <packet_input+0x42>
  2052f4:	201b      	movs	r0, #27
  2052f6:	f7ff fb9b 	bl	204a30 <packetbuf_addr>
  2052fa:	490c      	ldr	r1, [pc, #48]	; (20532c <packet_input+0x4c>)
  2052fc:	f000 fea5 	bl	20604a <linkaddr_cmp>
  205300:	b158      	cbz	r0, 20531a <packet_input+0x3a>
  205302:	f7ff ff07 	bl	205114 <mac_sequence_is_duplicate>
  205306:	b960      	cbnz	r0, 205322 <packet_input+0x42>
  205308:	f7ff ff1e 	bl	205148 <mac_sequence_register_seqno>
  20530c:	4b08      	ldr	r3, [pc, #32]	; (205330 <packet_input+0x50>)
  20530e:	68db      	ldr	r3, [r3, #12]
  205310:	9301      	str	r3, [sp, #4]
  205312:	b003      	add	sp, #12
  205314:	f85d eb04 	ldr.w	lr, [sp], #4
  205318:	4718      	bx	r3
  20531a:	f7ff fb91 	bl	204a40 <packetbuf_holds_broadcast>
  20531e:	2800      	cmp	r0, #0
  205320:	d1ef      	bne.n	205302 <packet_input+0x22>
  205322:	b003      	add	sp, #12
  205324:	f85d fb04 	ldr.w	pc, [sp], #4
  205328:	002064ec 	.word	0x002064ec
  20532c:	20000d96 	.word	0x20000d96
  205330:	002064a4 	.word	0x002064a4

00205334 <hdr_length>:
  205334:	b508      	push	{r3, lr}
  205336:	4b02      	ldr	r3, [pc, #8]	; (205340 <hdr_length+0xc>)
  205338:	681b      	ldr	r3, [r3, #0]
  20533a:	4798      	blx	r3
  20533c:	3002      	adds	r0, #2
  20533e:	bd08      	pop	{r3, pc}
  205340:	002064c0 	.word	0x002064c0

00205344 <parse>:
  205344:	b538      	push	{r3, r4, r5, lr}
  205346:	4b0c      	ldr	r3, [pc, #48]	; (205378 <parse+0x34>)
  205348:	689b      	ldr	r3, [r3, #8]
  20534a:	4798      	blx	r3
  20534c:	1e04      	subs	r4, r0, #0
  20534e:	da02      	bge.n	205356 <parse+0x12>
  205350:	f04f 30ff 	mov.w	r0, #4294967295	; 0xffffffff
  205354:	bd38      	pop	{r3, r4, r5, pc}
  205356:	f7ff fa9b 	bl	204890 <packetbuf_dataptr>
  20535a:	7803      	ldrb	r3, [r0, #0]
  20535c:	4605      	mov	r5, r0
  20535e:	2b00      	cmp	r3, #0
  205360:	d1f6      	bne.n	205350 <parse+0xc>
  205362:	2002      	movs	r0, #2
  205364:	f7ff fa7a 	bl	20485c <packetbuf_hdrreduce>
  205368:	2800      	cmp	r0, #0
  20536a:	d0f1      	beq.n	205350 <parse+0xc>
  20536c:	7868      	ldrb	r0, [r5, #1]
  20536e:	f7ff fa89 	bl	204884 <packetbuf_set_datalen>
  205372:	1ca0      	adds	r0, r4, #2
  205374:	bd38      	pop	{r3, r4, r5, pc}
  205376:	bf00      	nop
  205378:	002064c0 	.word	0x002064c0

0020537c <create>:
  20537c:	b570      	push	{r4, r5, r6, lr}
  20537e:	2002      	movs	r0, #2
  205380:	f7ff fab8 	bl	2048f4 <packetbuf_hdralloc>
  205384:	b910      	cbnz	r0, 20538c <create+0x10>
  205386:	f04f 30ff 	mov.w	r0, #4294967295	; 0xffffffff
  20538a:	bd70      	pop	{r4, r5, r6, pc}
  20538c:	f7ff fa8a 	bl	2048a4 <packetbuf_hdrptr>
  205390:	2500      	movs	r5, #0
  205392:	7005      	strb	r5, [r0, #0]
  205394:	4604      	mov	r4, r0
  205396:	f7ff fa8f 	bl	2048b8 <packetbuf_datalen>
  20539a:	7060      	strb	r0, [r4, #1]
  20539c:	f7ff faa0 	bl	2048e0 <packetbuf_totlen>
  2053a0:	4604      	mov	r4, r0
  2053a2:	f7ff ffc7 	bl	205334 <hdr_length>
  2053a6:	4420      	add	r0, r4
  2053a8:	282a      	cmp	r0, #42	; 0x2a
  2053aa:	dc12      	bgt.n	2053d2 <create+0x56>
  2053ac:	f1c0 002b 	rsb	r0, r0, #43	; 0x2b
  2053b0:	b2c4      	uxtb	r4, r0
  2053b2:	f7ff fa6d 	bl	204890 <packetbuf_dataptr>
  2053b6:	4606      	mov	r6, r0
  2053b8:	f7ff fa7e 	bl	2048b8 <packetbuf_datalen>
  2053bc:	4622      	mov	r2, r4
  2053be:	4629      	mov	r1, r5
  2053c0:	4430      	add	r0, r6
  2053c2:	f000 fadb 	bl	20597c <memset>
  2053c6:	f7ff fa77 	bl	2048b8 <packetbuf_datalen>
  2053ca:	4420      	add	r0, r4
  2053cc:	b280      	uxth	r0, r0
  2053ce:	f7ff fa59 	bl	204884 <packetbuf_set_datalen>
  2053d2:	4b04      	ldr	r3, [pc, #16]	; (2053e4 <create+0x68>)
  2053d4:	685b      	ldr	r3, [r3, #4]
  2053d6:	4798      	blx	r3
  2053d8:	1e04      	subs	r4, r0, #0
  2053da:	dbd4      	blt.n	205386 <create+0xa>
  2053dc:	f7ff f9fc 	bl	2047d8 <packetbuf_compact>
  2053e0:	1ca0      	adds	r0, r4, #2
  2053e2:	bd70      	pop	{r4, r5, r6, pc}
  2053e4:	002064c0 	.word	0x002064c0

002053e8 <input>:
  2053e8:	4b01      	ldr	r3, [pc, #4]	; (2053f0 <input+0x8>)
  2053ea:	689b      	ldr	r3, [r3, #8]
  2053ec:	4718      	bx	r3
  2053ee:	bf00      	nop
  2053f0:	00206498 	.word	0x00206498

002053f4 <send>:
  2053f4:	b570      	push	{r4, r5, r6, lr}
  2053f6:	4604      	mov	r4, r0
  2053f8:	460d      	mov	r5, r1
  2053fa:	2014      	movs	r0, #20
  2053fc:	2101      	movs	r1, #1
  2053fe:	f7ff fafd 	bl	2049fc <packetbuf_set_attr>
  205402:	4b03      	ldr	r3, [pc, #12]	; (205410 <send+0x1c>)
  205404:	4629      	mov	r1, r5
  205406:	4620      	mov	r0, r4
  205408:	e8bd 4070 	ldmia.w	sp!, {r4, r5, r6, lr}
  20540c:	689b      	ldr	r3, [r3, #8]
  20540e:	4718      	bx	r3
  205410:	002064a4 	.word	0x002064a4

00205414 <process_thread_openmote_demo_process>:
  205414:	2983      	cmp	r1, #131	; 0x83
  205416:	b5f7      	push	{r0, r1, r2, r4, r5, r6, r7, lr}
  205418:	4606      	mov	r6, r0
  20541a:	460d      	mov	r5, r1
  20541c:	4617      	mov	r7, r2
  20541e:	d102      	bne.n	205426 <process_thread_openmote_demo_process+0x12>
  205420:	4827      	ldr	r0, [pc, #156]	; (2054c0 <process_thread_openmote_demo_process+0xac>)
  205422:	f000 fcaa 	bl	205d7a <broadcast_close>
  205426:	8833      	ldrh	r3, [r6, #0]
  205428:	b12b      	cbz	r3, 205436 <process_thread_openmote_demo_process+0x22>
  20542a:	2b7d      	cmp	r3, #125	; 0x7d
  20542c:	d012      	beq.n	205454 <process_thread_openmote_demo_process+0x40>
  20542e:	2300      	movs	r3, #0
  205430:	8033      	strh	r3, [r6, #0]
  205432:	2003      	movs	r0, #3
  205434:	e042      	b.n	2054bc <process_thread_openmote_demo_process+0xa8>
  205436:	4a23      	ldr	r2, [pc, #140]	; (2054c4 <process_thread_openmote_demo_process+0xb0>)
  205438:	2181      	movs	r1, #129	; 0x81
  20543a:	8013      	strh	r3, [r2, #0]
  20543c:	4820      	ldr	r0, [pc, #128]	; (2054c0 <process_thread_openmote_demo_process+0xac>)
  20543e:	4a22      	ldr	r2, [pc, #136]	; (2054c8 <process_thread_openmote_demo_process+0xb4>)
  205440:	f7ff f8ec 	bl	20461c <broadcast_open>
  205444:	4821      	ldr	r0, [pc, #132]	; (2054cc <process_thread_openmote_demo_process+0xb8>)
  205446:	2180      	movs	r1, #128	; 0x80
  205448:	f000 fb79 	bl	205b3e <etimer_set>
  20544c:	237d      	movs	r3, #125	; 0x7d
  20544e:	8033      	strh	r3, [r6, #0]
  205450:	2001      	movs	r0, #1
  205452:	e033      	b.n	2054bc <process_thread_openmote_demo_process+0xa8>
  205454:	2d88      	cmp	r5, #136	; 0x88
  205456:	4c1b      	ldr	r4, [pc, #108]	; (2054c4 <process_thread_openmote_demo_process+0xb0>)
  205458:	d116      	bne.n	205488 <process_thread_openmote_demo_process+0x74>
  20545a:	2040      	movs	r0, #64	; 0x40
  20545c:	f7fe feb2 	bl	2041c4 <leds_on>
  205460:	8821      	ldrh	r1, [r4, #0]
  205462:	481b      	ldr	r0, [pc, #108]	; (2054d0 <process_thread_openmote_demo_process+0xbc>)
  205464:	f7fe f85c 	bl	203520 <printf>
  205468:	2180      	movs	r1, #128	; 0x80
  20546a:	4818      	ldr	r0, [pc, #96]	; (2054cc <process_thread_openmote_demo_process+0xb8>)
  20546c:	f000 fb67 	bl	205b3e <etimer_set>
  205470:	f7fd f8de 	bl	202630 <rtimer_arch_now>
  205474:	2300      	movs	r3, #0
  205476:	9300      	str	r3, [sp, #0]
  205478:	f500 4180 	add.w	r1, r0, #16384	; 0x4000
  20547c:	4b15      	ldr	r3, [pc, #84]	; (2054d4 <process_thread_openmote_demo_process+0xc0>)
  20547e:	2201      	movs	r2, #1
  205480:	4815      	ldr	r0, [pc, #84]	; (2054d8 <process_thread_openmote_demo_process+0xc4>)
  205482:	f7fe fe6f 	bl	204164 <rtimer_set>
  205486:	e015      	b.n	2054b4 <process_thread_openmote_demo_process+0xa0>
  205488:	4b14      	ldr	r3, [pc, #80]	; (2054dc <process_thread_openmote_demo_process+0xc8>)
  20548a:	781b      	ldrb	r3, [r3, #0]
  20548c:	42ab      	cmp	r3, r5
  20548e:	d10a      	bne.n	2054a6 <process_thread_openmote_demo_process+0x92>
  205490:	4b13      	ldr	r3, [pc, #76]	; (2054e0 <process_thread_openmote_demo_process+0xcc>)
  205492:	429f      	cmp	r7, r3
  205494:	d10e      	bne.n	2054b4 <process_thread_openmote_demo_process+0xa0>
  205496:	2102      	movs	r1, #2
  205498:	4620      	mov	r0, r4
  20549a:	f7ff fa71 	bl	204980 <packetbuf_copyfrom>
  20549e:	4808      	ldr	r0, [pc, #32]	; (2054c0 <process_thread_openmote_demo_process+0xac>)
  2054a0:	f7ff f8ce 	bl	204640 <broadcast_send>
  2054a4:	e006      	b.n	2054b4 <process_thread_openmote_demo_process+0xa0>
  2054a6:	4b0f      	ldr	r3, [pc, #60]	; (2054e4 <process_thread_openmote_demo_process+0xd0>)
  2054a8:	781b      	ldrb	r3, [r3, #0]
  2054aa:	42ab      	cmp	r3, r5
  2054ac:	d102      	bne.n	2054b4 <process_thread_openmote_demo_process+0xa0>
  2054ae:	2020      	movs	r0, #32
  2054b0:	f7fe fe9a 	bl	2041e8 <leds_toggle>
  2054b4:	8823      	ldrh	r3, [r4, #0]
  2054b6:	3301      	adds	r3, #1
  2054b8:	8023      	strh	r3, [r4, #0]
  2054ba:	e7c3      	b.n	205444 <process_thread_openmote_demo_process+0x30>
  2054bc:	b003      	add	sp, #12
  2054be:	bdf0      	pop	{r4, r5, r6, r7, pc}
  2054c0:	20000614 	.word	0x20000614
  2054c4:	20000c62 	.word	0x20000c62
  2054c8:	00206510 	.word	0x00206510
  2054cc:	20000604 	.word	0x20000604
  2054d0:	0020664a 	.word	0x0020664a
  2054d4:	00206365 	.word	0x00206365
  2054d8:	200005f8 	.word	0x200005f8
  2054dc:	20000dd7 	.word	0x20000dd7
  2054e0:	0020636c 	.word	0x0020636c
  2054e4:	20000dd6 	.word	0x20000dd6

002054e8 <broadcast_recv>:
  2054e8:	b510      	push	{r4, lr}
  2054ea:	2060      	movs	r0, #96	; 0x60
  2054ec:	f7fe fe7c 	bl	2041e8 <leds_toggle>
  2054f0:	f7ff f9e2 	bl	2048b8 <packetbuf_datalen>
  2054f4:	4604      	mov	r4, r0
  2054f6:	f7ff f9cb 	bl	204890 <packetbuf_dataptr>
  2054fa:	4621      	mov	r1, r4
  2054fc:	e8bd 4010 	ldmia.w	sp!, {r4, lr}
  205500:	8802      	ldrh	r2, [r0, #0]
  205502:	4801      	ldr	r0, [pc, #4]	; (205508 <broadcast_recv+0x20>)
  205504:	f7fe b80c 	b.w	203520 <printf>
  205508:	0020665d 	.word	0x0020665d

0020550c <__aeabi_uldivmod>:
  20550c:	b953      	cbnz	r3, 205524 <__aeabi_uldivmod+0x18>
  20550e:	b94a      	cbnz	r2, 205524 <__aeabi_uldivmod+0x18>
  205510:	2900      	cmp	r1, #0
  205512:	bf08      	it	eq
  205514:	2800      	cmpeq	r0, #0
  205516:	bf1c      	itt	ne
  205518:	f04f 31ff 	movne.w	r1, #4294967295	; 0xffffffff
  20551c:	f04f 30ff 	movne.w	r0, #4294967295	; 0xffffffff
  205520:	f000 b982 	b.w	205828 <__aeabi_idiv0>
  205524:	f1ad 0c08 	sub.w	ip, sp, #8
  205528:	e96d ce04 	strd	ip, lr, [sp, #-16]!
  20552c:	f000 f806 	bl	20553c <__udivmoddi4>
  205530:	f8dd e004 	ldr.w	lr, [sp, #4]
  205534:	e9dd 2302 	ldrd	r2, r3, [sp, #8]
  205538:	b004      	add	sp, #16
  20553a:	4770      	bx	lr

0020553c <__udivmoddi4>:
  20553c:	e92d 4ff0 	stmdb	sp!, {r4, r5, r6, r7, r8, r9, sl, fp, lr}
  205540:	468c      	mov	ip, r1
  205542:	460c      	mov	r4, r1
  205544:	4605      	mov	r5, r0
  205546:	9e09      	ldr	r6, [sp, #36]	; 0x24
  205548:	2b00      	cmp	r3, #0
  20554a:	d14f      	bne.n	2055ec <__udivmoddi4+0xb0>
  20554c:	428a      	cmp	r2, r1
  20554e:	4617      	mov	r7, r2
  205550:	d96b      	bls.n	20562a <__udivmoddi4+0xee>
  205552:	fab2 fe82 	clz	lr, r2
  205556:	f1be 0f00 	cmp.w	lr, #0
  20555a:	d00b      	beq.n	205574 <__udivmoddi4+0x38>
  20555c:	f1ce 0520 	rsb	r5, lr, #32
  205560:	fa20 f505 	lsr.w	r5, r0, r5
  205564:	fa01 f30e 	lsl.w	r3, r1, lr
  205568:	ea45 0c03 	orr.w	ip, r5, r3
  20556c:	fa02 f70e 	lsl.w	r7, r2, lr
  205570:	fa00 f50e 	lsl.w	r5, r0, lr
  205574:	0c39      	lsrs	r1, r7, #16
  205576:	fbbc f0f1 	udiv	r0, ip, r1
  20557a:	b2ba      	uxth	r2, r7
  20557c:	fb01 c310 	mls	r3, r1, r0, ip
  205580:	fb00 f802 	mul.w	r8, r0, r2
  205584:	ea4f 4c15 	mov.w	ip, r5, lsr #16
  205588:	ea4c 4403 	orr.w	r4, ip, r3, lsl #16
  20558c:	45a0      	cmp	r8, r4
  20558e:	d909      	bls.n	2055a4 <__udivmoddi4+0x68>
  205590:	19e4      	adds	r4, r4, r7
  205592:	f100 33ff 	add.w	r3, r0, #4294967295	; 0xffffffff
  205596:	f080 8128 	bcs.w	2057ea <__udivmoddi4+0x2ae>
  20559a:	45a0      	cmp	r8, r4
  20559c:	f240 8125 	bls.w	2057ea <__udivmoddi4+0x2ae>
  2055a0:	3802      	subs	r0, #2
  2055a2:	443c      	add	r4, r7
  2055a4:	ebc8 0404 	rsb	r4, r8, r4
  2055a8:	fbb4 f3f1 	udiv	r3, r4, r1
  2055ac:	fb01 4c13 	mls	ip, r1, r3, r4
  2055b0:	fb03 f202 	mul.w	r2, r3, r2
  2055b4:	b2ac      	uxth	r4, r5
  2055b6:	ea44 410c 	orr.w	r1, r4, ip, lsl #16
  2055ba:	428a      	cmp	r2, r1
  2055bc:	d909      	bls.n	2055d2 <__udivmoddi4+0x96>
  2055be:	19c9      	adds	r1, r1, r7
  2055c0:	f103 34ff 	add.w	r4, r3, #4294967295	; 0xffffffff
  2055c4:	f080 810f 	bcs.w	2057e6 <__udivmoddi4+0x2aa>
  2055c8:	428a      	cmp	r2, r1
  2055ca:	f240 810c 	bls.w	2057e6 <__udivmoddi4+0x2aa>
  2055ce:	3b02      	subs	r3, #2
  2055d0:	4439      	add	r1, r7
  2055d2:	1a8a      	subs	r2, r1, r2
  2055d4:	ea43 4000 	orr.w	r0, r3, r0, lsl #16
  2055d8:	2100      	movs	r1, #0
  2055da:	2e00      	cmp	r6, #0
  2055dc:	d063      	beq.n	2056a6 <__udivmoddi4+0x16a>
  2055de:	fa22 f20e 	lsr.w	r2, r2, lr
  2055e2:	2300      	movs	r3, #0
  2055e4:	e886 000c 	stmia.w	r6, {r2, r3}
  2055e8:	e8bd 8ff0 	ldmia.w	sp!, {r4, r5, r6, r7, r8, r9, sl, fp, pc}
  2055ec:	428b      	cmp	r3, r1
  2055ee:	d907      	bls.n	205600 <__udivmoddi4+0xc4>
  2055f0:	2e00      	cmp	r6, #0
  2055f2:	d056      	beq.n	2056a2 <__udivmoddi4+0x166>
  2055f4:	2100      	movs	r1, #0
  2055f6:	e886 0011 	stmia.w	r6, {r0, r4}
  2055fa:	4608      	mov	r0, r1
  2055fc:	e8bd 8ff0 	ldmia.w	sp!, {r4, r5, r6, r7, r8, r9, sl, fp, pc}
  205600:	fab3 f183 	clz	r1, r3
  205604:	2900      	cmp	r1, #0
  205606:	f040 8093 	bne.w	205730 <__udivmoddi4+0x1f4>
  20560a:	42a3      	cmp	r3, r4
  20560c:	d302      	bcc.n	205614 <__udivmoddi4+0xd8>
  20560e:	4282      	cmp	r2, r0
  205610:	f200 80fe 	bhi.w	205810 <__udivmoddi4+0x2d4>
  205614:	1a85      	subs	r5, r0, r2
  205616:	eb64 0303 	sbc.w	r3, r4, r3
  20561a:	469c      	mov	ip, r3
  20561c:	2001      	movs	r0, #1
  20561e:	2e00      	cmp	r6, #0
  205620:	d041      	beq.n	2056a6 <__udivmoddi4+0x16a>
  205622:	e886 1020 	stmia.w	r6, {r5, ip}
  205626:	e8bd 8ff0 	ldmia.w	sp!, {r4, r5, r6, r7, r8, r9, sl, fp, pc}
  20562a:	b912      	cbnz	r2, 205632 <__udivmoddi4+0xf6>
  20562c:	2701      	movs	r7, #1
  20562e:	fbb7 f7f2 	udiv	r7, r7, r2
  205632:	fab7 fe87 	clz	lr, r7
  205636:	f1be 0f00 	cmp.w	lr, #0
  20563a:	d136      	bne.n	2056aa <__udivmoddi4+0x16e>
  20563c:	1be4      	subs	r4, r4, r7
  20563e:	ea4f 4817 	mov.w	r8, r7, lsr #16
  205642:	fa1f f987 	uxth.w	r9, r7
  205646:	2101      	movs	r1, #1
  205648:	fbb4 f3f8 	udiv	r3, r4, r8
  20564c:	fb08 4413 	mls	r4, r8, r3, r4
  205650:	fb09 f203 	mul.w	r2, r9, r3
  205654:	ea4f 4c15 	mov.w	ip, r5, lsr #16
  205658:	ea4c 4404 	orr.w	r4, ip, r4, lsl #16
  20565c:	42a2      	cmp	r2, r4
  20565e:	d907      	bls.n	205670 <__udivmoddi4+0x134>
  205660:	19e4      	adds	r4, r4, r7
  205662:	f103 30ff 	add.w	r0, r3, #4294967295	; 0xffffffff
  205666:	d202      	bcs.n	20566e <__udivmoddi4+0x132>
  205668:	42a2      	cmp	r2, r4
  20566a:	f200 80d3 	bhi.w	205814 <__udivmoddi4+0x2d8>
  20566e:	4603      	mov	r3, r0
  205670:	1aa4      	subs	r4, r4, r2
  205672:	fbb4 f0f8 	udiv	r0, r4, r8
  205676:	fb08 4810 	mls	r8, r8, r0, r4
  20567a:	fb09 f900 	mul.w	r9, r9, r0
  20567e:	b2ac      	uxth	r4, r5
  205680:	ea44 4208 	orr.w	r2, r4, r8, lsl #16
  205684:	4591      	cmp	r9, r2
  205686:	d907      	bls.n	205698 <__udivmoddi4+0x15c>
  205688:	19d2      	adds	r2, r2, r7
  20568a:	f100 34ff 	add.w	r4, r0, #4294967295	; 0xffffffff
  20568e:	d202      	bcs.n	205696 <__udivmoddi4+0x15a>
  205690:	4591      	cmp	r9, r2
  205692:	f200 80ba 	bhi.w	20580a <__udivmoddi4+0x2ce>
  205696:	4620      	mov	r0, r4
  205698:	ebc9 0202 	rsb	r2, r9, r2
  20569c:	ea40 4003 	orr.w	r0, r0, r3, lsl #16
  2056a0:	e79b      	b.n	2055da <__udivmoddi4+0x9e>
  2056a2:	4631      	mov	r1, r6
  2056a4:	4630      	mov	r0, r6
  2056a6:	e8bd 8ff0 	ldmia.w	sp!, {r4, r5, r6, r7, r8, r9, sl, fp, pc}
  2056aa:	fa07 f70e 	lsl.w	r7, r7, lr
  2056ae:	f1ce 0c20 	rsb	ip, lr, #32
  2056b2:	fa24 f30c 	lsr.w	r3, r4, ip
  2056b6:	ea4f 4817 	mov.w	r8, r7, lsr #16
  2056ba:	fbb3 faf8 	udiv	sl, r3, r8
  2056be:	fa1f f987 	uxth.w	r9, r7
  2056c2:	fb08 351a 	mls	r5, r8, sl, r3
  2056c6:	fa20 fc0c 	lsr.w	ip, r0, ip
  2056ca:	fa04 f40e 	lsl.w	r4, r4, lr
  2056ce:	fb0a fb09 	mul.w	fp, sl, r9
  2056d2:	ea4c 0c04 	orr.w	ip, ip, r4
  2056d6:	ea4f 421c 	mov.w	r2, ip, lsr #16
  2056da:	ea42 4305 	orr.w	r3, r2, r5, lsl #16
  2056de:	459b      	cmp	fp, r3
  2056e0:	fa00 f50e 	lsl.w	r5, r0, lr
  2056e4:	d90a      	bls.n	2056fc <__udivmoddi4+0x1c0>
  2056e6:	19db      	adds	r3, r3, r7
  2056e8:	f10a 32ff 	add.w	r2, sl, #4294967295	; 0xffffffff
  2056ec:	f080 808b 	bcs.w	205806 <__udivmoddi4+0x2ca>
  2056f0:	459b      	cmp	fp, r3
  2056f2:	f240 8088 	bls.w	205806 <__udivmoddi4+0x2ca>
  2056f6:	f1aa 0a02 	sub.w	sl, sl, #2
  2056fa:	443b      	add	r3, r7
  2056fc:	ebcb 0303 	rsb	r3, fp, r3
  205700:	fbb3 f0f8 	udiv	r0, r3, r8
  205704:	fb08 3310 	mls	r3, r8, r0, r3
  205708:	fb00 f409 	mul.w	r4, r0, r9
  20570c:	fa1f fc8c 	uxth.w	ip, ip
  205710:	ea4c 4303 	orr.w	r3, ip, r3, lsl #16
  205714:	429c      	cmp	r4, r3
  205716:	d907      	bls.n	205728 <__udivmoddi4+0x1ec>
  205718:	19db      	adds	r3, r3, r7
  20571a:	f100 32ff 	add.w	r2, r0, #4294967295	; 0xffffffff
  20571e:	d26e      	bcs.n	2057fe <__udivmoddi4+0x2c2>
  205720:	429c      	cmp	r4, r3
  205722:	d96c      	bls.n	2057fe <__udivmoddi4+0x2c2>
  205724:	3802      	subs	r0, #2
  205726:	443b      	add	r3, r7
  205728:	1b1c      	subs	r4, r3, r4
  20572a:	ea40 410a 	orr.w	r1, r0, sl, lsl #16
  20572e:	e78b      	b.n	205648 <__udivmoddi4+0x10c>
  205730:	f1c1 0e20 	rsb	lr, r1, #32
  205734:	408b      	lsls	r3, r1
  205736:	fa22 fc0e 	lsr.w	ip, r2, lr
  20573a:	ea4c 0c03 	orr.w	ip, ip, r3
  20573e:	fa24 f70e 	lsr.w	r7, r4, lr
  205742:	ea4f 491c 	mov.w	r9, ip, lsr #16
  205746:	fbb7 faf9 	udiv	sl, r7, r9
  20574a:	fa1f f38c 	uxth.w	r3, ip
  20574e:	fb09 771a 	mls	r7, r9, sl, r7
  205752:	fa20 f80e 	lsr.w	r8, r0, lr
  205756:	408c      	lsls	r4, r1
  205758:	fb0a f503 	mul.w	r5, sl, r3
  20575c:	ea48 0404 	orr.w	r4, r8, r4
  205760:	ea4f 4814 	mov.w	r8, r4, lsr #16
  205764:	ea48 4707 	orr.w	r7, r8, r7, lsl #16
  205768:	42bd      	cmp	r5, r7
  20576a:	fa02 f201 	lsl.w	r2, r2, r1
  20576e:	fa00 fb01 	lsl.w	fp, r0, r1
  205772:	d909      	bls.n	205788 <__udivmoddi4+0x24c>
  205774:	eb17 070c 	adds.w	r7, r7, ip
  205778:	f10a 30ff 	add.w	r0, sl, #4294967295	; 0xffffffff
  20577c:	d241      	bcs.n	205802 <__udivmoddi4+0x2c6>
  20577e:	42bd      	cmp	r5, r7
  205780:	d93f      	bls.n	205802 <__udivmoddi4+0x2c6>
  205782:	f1aa 0a02 	sub.w	sl, sl, #2
  205786:	4467      	add	r7, ip
  205788:	1b7f      	subs	r7, r7, r5
  20578a:	fbb7 f5f9 	udiv	r5, r7, r9
  20578e:	fb09 7715 	mls	r7, r9, r5, r7
  205792:	fb05 f303 	mul.w	r3, r5, r3
  205796:	b2a4      	uxth	r4, r4
  205798:	ea44 4707 	orr.w	r7, r4, r7, lsl #16
  20579c:	42bb      	cmp	r3, r7
  20579e:	d908      	bls.n	2057b2 <__udivmoddi4+0x276>
  2057a0:	eb17 070c 	adds.w	r7, r7, ip
  2057a4:	f105 30ff 	add.w	r0, r5, #4294967295	; 0xffffffff
  2057a8:	d227      	bcs.n	2057fa <__udivmoddi4+0x2be>
  2057aa:	42bb      	cmp	r3, r7
  2057ac:	d925      	bls.n	2057fa <__udivmoddi4+0x2be>
  2057ae:	3d02      	subs	r5, #2
  2057b0:	4467      	add	r7, ip
  2057b2:	ea45 400a 	orr.w	r0, r5, sl, lsl #16
  2057b6:	fba0 8902 	umull	r8, r9, r0, r2
  2057ba:	1aff      	subs	r7, r7, r3
  2057bc:	454f      	cmp	r7, r9
  2057be:	4645      	mov	r5, r8
  2057c0:	464c      	mov	r4, r9
  2057c2:	d314      	bcc.n	2057ee <__udivmoddi4+0x2b2>
  2057c4:	d029      	beq.n	20581a <__udivmoddi4+0x2de>
  2057c6:	b366      	cbz	r6, 205822 <__udivmoddi4+0x2e6>
  2057c8:	ebbb 0305 	subs.w	r3, fp, r5
  2057cc:	eb67 0704 	sbc.w	r7, r7, r4
  2057d0:	fa07 fe0e 	lsl.w	lr, r7, lr
  2057d4:	40cb      	lsrs	r3, r1
  2057d6:	40cf      	lsrs	r7, r1
  2057d8:	ea4e 0303 	orr.w	r3, lr, r3
  2057dc:	e886 0088 	stmia.w	r6, {r3, r7}
  2057e0:	2100      	movs	r1, #0
  2057e2:	e8bd 8ff0 	ldmia.w	sp!, {r4, r5, r6, r7, r8, r9, sl, fp, pc}
  2057e6:	4623      	mov	r3, r4
  2057e8:	e6f3      	b.n	2055d2 <__udivmoddi4+0x96>
  2057ea:	4618      	mov	r0, r3
  2057ec:	e6da      	b.n	2055a4 <__udivmoddi4+0x68>
  2057ee:	ebb8 0502 	subs.w	r5, r8, r2
  2057f2:	eb69 040c 	sbc.w	r4, r9, ip
  2057f6:	3801      	subs	r0, #1
  2057f8:	e7e5      	b.n	2057c6 <__udivmoddi4+0x28a>
  2057fa:	4605      	mov	r5, r0
  2057fc:	e7d9      	b.n	2057b2 <__udivmoddi4+0x276>
  2057fe:	4610      	mov	r0, r2
  205800:	e792      	b.n	205728 <__udivmoddi4+0x1ec>
  205802:	4682      	mov	sl, r0
  205804:	e7c0      	b.n	205788 <__udivmoddi4+0x24c>
  205806:	4692      	mov	sl, r2
  205808:	e778      	b.n	2056fc <__udivmoddi4+0x1c0>
  20580a:	3802      	subs	r0, #2
  20580c:	443a      	add	r2, r7
  20580e:	e743      	b.n	205698 <__udivmoddi4+0x15c>
  205810:	4608      	mov	r0, r1
  205812:	e704      	b.n	20561e <__udivmoddi4+0xe2>
  205814:	3b02      	subs	r3, #2
  205816:	443c      	add	r4, r7
  205818:	e72a      	b.n	205670 <__udivmoddi4+0x134>
  20581a:	45c3      	cmp	fp, r8
  20581c:	d3e7      	bcc.n	2057ee <__udivmoddi4+0x2b2>
  20581e:	463c      	mov	r4, r7
  205820:	e7d1      	b.n	2057c6 <__udivmoddi4+0x28a>
  205822:	4631      	mov	r1, r6
  205824:	e8bd 8ff0 	ldmia.w	sp!, {r4, r5, r6, r7, r8, r9, sl, fp, pc}

00205828 <__aeabi_idiv0>:
  205828:	4770      	bx	lr
  20582a:	bf00      	nop

0020582c <memcmp>:
  20582c:	2a03      	cmp	r2, #3
  20582e:	b470      	push	{r4, r5, r6}
  205830:	d926      	bls.n	205880 <memcmp+0x54>
  205832:	ea40 0301 	orr.w	r3, r0, r1
  205836:	079b      	lsls	r3, r3, #30
  205838:	d011      	beq.n	20585e <memcmp+0x32>
  20583a:	7804      	ldrb	r4, [r0, #0]
  20583c:	780d      	ldrb	r5, [r1, #0]
  20583e:	42ac      	cmp	r4, r5
  205840:	d122      	bne.n	205888 <memcmp+0x5c>
  205842:	4402      	add	r2, r0
  205844:	1c43      	adds	r3, r0, #1
  205846:	e005      	b.n	205854 <memcmp+0x28>
  205848:	f813 4b01 	ldrb.w	r4, [r3], #1
  20584c:	f811 5f01 	ldrb.w	r5, [r1, #1]!
  205850:	42ac      	cmp	r4, r5
  205852:	d119      	bne.n	205888 <memcmp+0x5c>
  205854:	4293      	cmp	r3, r2
  205856:	d1f7      	bne.n	205848 <memcmp+0x1c>
  205858:	2000      	movs	r0, #0
  20585a:	bc70      	pop	{r4, r5, r6}
  20585c:	4770      	bx	lr
  20585e:	460c      	mov	r4, r1
  205860:	4603      	mov	r3, r0
  205862:	681e      	ldr	r6, [r3, #0]
  205864:	6825      	ldr	r5, [r4, #0]
  205866:	4618      	mov	r0, r3
  205868:	42ae      	cmp	r6, r5
  20586a:	4621      	mov	r1, r4
  20586c:	f103 0304 	add.w	r3, r3, #4
  205870:	f104 0404 	add.w	r4, r4, #4
  205874:	d1e1      	bne.n	20583a <memcmp+0xe>
  205876:	3a04      	subs	r2, #4
  205878:	2a03      	cmp	r2, #3
  20587a:	4618      	mov	r0, r3
  20587c:	4621      	mov	r1, r4
  20587e:	d8f0      	bhi.n	205862 <memcmp+0x36>
  205880:	2a00      	cmp	r2, #0
  205882:	d1da      	bne.n	20583a <memcmp+0xe>
  205884:	4610      	mov	r0, r2
  205886:	e7e8      	b.n	20585a <memcmp+0x2e>
  205888:	1b60      	subs	r0, r4, r5
  20588a:	bc70      	pop	{r4, r5, r6}
  20588c:	4770      	bx	lr
  20588e:	bf00      	nop

00205890 <memcpy>:
  205890:	4684      	mov	ip, r0
  205892:	ea41 0300 	orr.w	r3, r1, r0
  205896:	f013 0303 	ands.w	r3, r3, #3
  20589a:	d149      	bne.n	205930 <memcpy+0xa0>
  20589c:	3a40      	subs	r2, #64	; 0x40
  20589e:	d323      	bcc.n	2058e8 <memcpy+0x58>
  2058a0:	680b      	ldr	r3, [r1, #0]
  2058a2:	6003      	str	r3, [r0, #0]
  2058a4:	684b      	ldr	r3, [r1, #4]
  2058a6:	6043      	str	r3, [r0, #4]
  2058a8:	688b      	ldr	r3, [r1, #8]
  2058aa:	6083      	str	r3, [r0, #8]
  2058ac:	68cb      	ldr	r3, [r1, #12]
  2058ae:	60c3      	str	r3, [r0, #12]
  2058b0:	690b      	ldr	r3, [r1, #16]
  2058b2:	6103      	str	r3, [r0, #16]
  2058b4:	694b      	ldr	r3, [r1, #20]
  2058b6:	6143      	str	r3, [r0, #20]
  2058b8:	698b      	ldr	r3, [r1, #24]
  2058ba:	6183      	str	r3, [r0, #24]
  2058bc:	69cb      	ldr	r3, [r1, #28]
  2058be:	61c3      	str	r3, [r0, #28]
  2058c0:	6a0b      	ldr	r3, [r1, #32]
  2058c2:	6203      	str	r3, [r0, #32]
  2058c4:	6a4b      	ldr	r3, [r1, #36]	; 0x24
  2058c6:	6243      	str	r3, [r0, #36]	; 0x24
  2058c8:	6a8b      	ldr	r3, [r1, #40]	; 0x28
  2058ca:	6283      	str	r3, [r0, #40]	; 0x28
  2058cc:	6acb      	ldr	r3, [r1, #44]	; 0x2c
  2058ce:	62c3      	str	r3, [r0, #44]	; 0x2c
  2058d0:	6b0b      	ldr	r3, [r1, #48]	; 0x30
  2058d2:	6303      	str	r3, [r0, #48]	; 0x30
  2058d4:	6b4b      	ldr	r3, [r1, #52]	; 0x34
  2058d6:	6343      	str	r3, [r0, #52]	; 0x34
  2058d8:	6b8b      	ldr	r3, [r1, #56]	; 0x38
  2058da:	6383      	str	r3, [r0, #56]	; 0x38
  2058dc:	6bcb      	ldr	r3, [r1, #60]	; 0x3c
  2058de:	63c3      	str	r3, [r0, #60]	; 0x3c
  2058e0:	3040      	adds	r0, #64	; 0x40
  2058e2:	3140      	adds	r1, #64	; 0x40
  2058e4:	3a40      	subs	r2, #64	; 0x40
  2058e6:	d2db      	bcs.n	2058a0 <memcpy+0x10>
  2058e8:	3230      	adds	r2, #48	; 0x30
  2058ea:	d30b      	bcc.n	205904 <memcpy+0x74>
  2058ec:	680b      	ldr	r3, [r1, #0]
  2058ee:	6003      	str	r3, [r0, #0]
  2058f0:	684b      	ldr	r3, [r1, #4]
  2058f2:	6043      	str	r3, [r0, #4]
  2058f4:	688b      	ldr	r3, [r1, #8]
  2058f6:	6083      	str	r3, [r0, #8]
  2058f8:	68cb      	ldr	r3, [r1, #12]
  2058fa:	60c3      	str	r3, [r0, #12]
  2058fc:	3010      	adds	r0, #16
  2058fe:	3110      	adds	r1, #16
  205900:	3a10      	subs	r2, #16
  205902:	d2f3      	bcs.n	2058ec <memcpy+0x5c>
  205904:	320c      	adds	r2, #12
  205906:	d305      	bcc.n	205914 <memcpy+0x84>
  205908:	f851 3b04 	ldr.w	r3, [r1], #4
  20590c:	f840 3b04 	str.w	r3, [r0], #4
  205910:	3a04      	subs	r2, #4
  205912:	d2f9      	bcs.n	205908 <memcpy+0x78>
  205914:	3204      	adds	r2, #4
  205916:	d008      	beq.n	20592a <memcpy+0x9a>
  205918:	07d2      	lsls	r2, r2, #31
  20591a:	bf1c      	itt	ne
  20591c:	f811 3b01 	ldrbne.w	r3, [r1], #1
  205920:	f800 3b01 	strbne.w	r3, [r0], #1
  205924:	d301      	bcc.n	20592a <memcpy+0x9a>
  205926:	880b      	ldrh	r3, [r1, #0]
  205928:	8003      	strh	r3, [r0, #0]
  20592a:	4660      	mov	r0, ip
  20592c:	4770      	bx	lr
  20592e:	bf00      	nop
  205930:	2a08      	cmp	r2, #8
  205932:	d313      	bcc.n	20595c <memcpy+0xcc>
  205934:	078b      	lsls	r3, r1, #30
  205936:	d0b1      	beq.n	20589c <memcpy+0xc>
  205938:	f010 0303 	ands.w	r3, r0, #3
  20593c:	d0ae      	beq.n	20589c <memcpy+0xc>
  20593e:	f1c3 0304 	rsb	r3, r3, #4
  205942:	1ad2      	subs	r2, r2, r3
  205944:	07db      	lsls	r3, r3, #31
  205946:	bf1c      	itt	ne
  205948:	f811 3b01 	ldrbne.w	r3, [r1], #1
  20594c:	f800 3b01 	strbne.w	r3, [r0], #1
  205950:	d3a4      	bcc.n	20589c <memcpy+0xc>
  205952:	f831 3b02 	ldrh.w	r3, [r1], #2
  205956:	f820 3b02 	strh.w	r3, [r0], #2
  20595a:	e79f      	b.n	20589c <memcpy+0xc>
  20595c:	3a04      	subs	r2, #4
  20595e:	d3d9      	bcc.n	205914 <memcpy+0x84>
  205960:	3a01      	subs	r2, #1
  205962:	f811 3b01 	ldrb.w	r3, [r1], #1
  205966:	f800 3b01 	strb.w	r3, [r0], #1
  20596a:	d2f9      	bcs.n	205960 <memcpy+0xd0>
  20596c:	780b      	ldrb	r3, [r1, #0]
  20596e:	7003      	strb	r3, [r0, #0]
  205970:	784b      	ldrb	r3, [r1, #1]
  205972:	7043      	strb	r3, [r0, #1]
  205974:	788b      	ldrb	r3, [r1, #2]
  205976:	7083      	strb	r3, [r0, #2]
  205978:	4660      	mov	r0, ip
  20597a:	4770      	bx	lr

0020597c <memset>:
  20597c:	b470      	push	{r4, r5, r6}
  20597e:	0784      	lsls	r4, r0, #30
  205980:	d046      	beq.n	205a10 <memset+0x94>
  205982:	1e54      	subs	r4, r2, #1
  205984:	2a00      	cmp	r2, #0
  205986:	d041      	beq.n	205a0c <memset+0x90>
  205988:	b2cd      	uxtb	r5, r1
  20598a:	4603      	mov	r3, r0
  20598c:	e002      	b.n	205994 <memset+0x18>
  20598e:	1e62      	subs	r2, r4, #1
  205990:	b3e4      	cbz	r4, 205a0c <memset+0x90>
  205992:	4614      	mov	r4, r2
  205994:	f803 5b01 	strb.w	r5, [r3], #1
  205998:	079a      	lsls	r2, r3, #30
  20599a:	d1f8      	bne.n	20598e <memset+0x12>
  20599c:	2c03      	cmp	r4, #3
  20599e:	d92e      	bls.n	2059fe <memset+0x82>
  2059a0:	b2cd      	uxtb	r5, r1
  2059a2:	ea45 2505 	orr.w	r5, r5, r5, lsl #8
  2059a6:	2c0f      	cmp	r4, #15
  2059a8:	ea45 4505 	orr.w	r5, r5, r5, lsl #16
  2059ac:	d919      	bls.n	2059e2 <memset+0x66>
  2059ae:	4626      	mov	r6, r4
  2059b0:	f103 0210 	add.w	r2, r3, #16
  2059b4:	3e10      	subs	r6, #16
  2059b6:	2e0f      	cmp	r6, #15
  2059b8:	f842 5c10 	str.w	r5, [r2, #-16]
  2059bc:	f842 5c0c 	str.w	r5, [r2, #-12]
  2059c0:	f842 5c08 	str.w	r5, [r2, #-8]
  2059c4:	f842 5c04 	str.w	r5, [r2, #-4]
  2059c8:	f102 0210 	add.w	r2, r2, #16
  2059cc:	d8f2      	bhi.n	2059b4 <memset+0x38>
  2059ce:	f1a4 0210 	sub.w	r2, r4, #16
  2059d2:	f022 020f 	bic.w	r2, r2, #15
  2059d6:	f004 040f 	and.w	r4, r4, #15
  2059da:	3210      	adds	r2, #16
  2059dc:	2c03      	cmp	r4, #3
  2059de:	4413      	add	r3, r2
  2059e0:	d90d      	bls.n	2059fe <memset+0x82>
  2059e2:	461e      	mov	r6, r3
  2059e4:	4622      	mov	r2, r4
  2059e6:	3a04      	subs	r2, #4
  2059e8:	2a03      	cmp	r2, #3
  2059ea:	f846 5b04 	str.w	r5, [r6], #4
  2059ee:	d8fa      	bhi.n	2059e6 <memset+0x6a>
  2059f0:	1f22      	subs	r2, r4, #4
  2059f2:	f022 0203 	bic.w	r2, r2, #3
  2059f6:	3204      	adds	r2, #4
  2059f8:	4413      	add	r3, r2
  2059fa:	f004 0403 	and.w	r4, r4, #3
  2059fe:	b12c      	cbz	r4, 205a0c <memset+0x90>
  205a00:	b2c9      	uxtb	r1, r1
  205a02:	441c      	add	r4, r3
  205a04:	f803 1b01 	strb.w	r1, [r3], #1
  205a08:	42a3      	cmp	r3, r4
  205a0a:	d1fb      	bne.n	205a04 <memset+0x88>
  205a0c:	bc70      	pop	{r4, r5, r6}
  205a0e:	4770      	bx	lr
  205a10:	4614      	mov	r4, r2
  205a12:	4603      	mov	r3, r0
  205a14:	e7c2      	b.n	20599c <memset+0x20>
  205a16:	bf00      	nop

00205a18 <default_handler>:
  205a18:	e7fe      	b.n	205a18 <default_handler>

00205a1a <nmi_handler>:
  205a1a:	b508      	push	{r3, lr}
  205a1c:	f7fc fc36 	bl	20228c <reset_handler>

00205a20 <fade>:
  205a20:	b5f7      	push	{r0, r1, r2, r4, r5, r6, r7, lr}
  205a22:	2400      	movs	r4, #0
  205a24:	4606      	mov	r6, r0
  205a26:	4625      	mov	r5, r4
  205a28:	4627      	mov	r7, r4
  205a2a:	4630      	mov	r0, r6
  205a2c:	f7fe fbca 	bl	2041c4 <leds_on>
  205a30:	9701      	str	r7, [sp, #4]
  205a32:	9b01      	ldr	r3, [sp, #4]
  205a34:	429d      	cmp	r5, r3
  205a36:	dd04      	ble.n	205a42 <fade+0x22>
  205a38:	bf00      	nop
  205a3a:	9b01      	ldr	r3, [sp, #4]
  205a3c:	3301      	adds	r3, #1
  205a3e:	9301      	str	r3, [sp, #4]
  205a40:	e7f7      	b.n	205a32 <fade+0x12>
  205a42:	4630      	mov	r0, r6
  205a44:	f7fe fbc6 	bl	2041d4 <leds_off>
  205a48:	f5c5 75c8 	rsb	r5, r5, #400	; 0x190
  205a4c:	9701      	str	r7, [sp, #4]
  205a4e:	9b01      	ldr	r3, [sp, #4]
  205a50:	429d      	cmp	r5, r3
  205a52:	dd04      	ble.n	205a5e <fade+0x3e>
  205a54:	bf00      	nop
  205a56:	9b01      	ldr	r3, [sp, #4]
  205a58:	3301      	adds	r3, #1
  205a5a:	9301      	str	r3, [sp, #4]
  205a5c:	e7f7      	b.n	205a4e <fade+0x2e>
  205a5e:	3401      	adds	r4, #1
  205a60:	f5b4 7f48 	cmp.w	r4, #800	; 0x320
  205a64:	d006      	beq.n	205a74 <fade+0x54>
  205a66:	f5b4 7fc8 	cmp.w	r4, #400	; 0x190
  205a6a:	bfcc      	ite	gt
  205a6c:	f5c4 7548 	rsbgt	r5, r4, #800	; 0x320
  205a70:	4625      	movle	r5, r4
  205a72:	e7da      	b.n	205a2a <fade+0xa>
  205a74:	b003      	add	sp, #12
  205a76:	bdf0      	pop	{r4, r5, r6, r7, pc}

00205a78 <board_init>:
  205a78:	f7fc bd50 	b.w	20251c <antenna_init>

00205a7c <clock_isr>:
  205a7c:	f7fc bd5c 	b.w	202538 <update_ticks>

00205a80 <rtimer_arch_init>:
  205a80:	4770      	bx	lr

00205a82 <uart0_isr>:
  205a82:	2000      	movs	r0, #0
  205a84:	f7fc be42 	b.w	20270c <uart_isr>

00205a88 <uart1_isr>:
  205a88:	2001      	movs	r0, #1
  205a8a:	f7fc be3f 	b.w	20270c <uart_isr>

00205a8e <cpu_cpsie>:
  205a8e:	f3ef 8010 	mrs	r0, PRIMASK
  205a92:	b662      	cpsie	i
  205a94:	4770      	bx	lr

00205a96 <cpu_cpsid>:
  205a96:	f3ef 8010 	mrs	r0, PRIMASK
  205a9a:	b672      	cpsid	i
  205a9c:	4770      	bx	lr

00205a9e <gpio_port_a_isr>:
  205a9e:	2000      	movs	r0, #0
  205aa0:	f7fc bfd2 	b.w	202a48 <gpio_port_isr>

00205aa4 <gpio_port_b_isr>:
  205aa4:	2001      	movs	r0, #1
  205aa6:	f7fc bfcf 	b.w	202a48 <gpio_port_isr>

00205aaa <gpio_port_c_isr>:
  205aaa:	2002      	movs	r0, #2
  205aac:	f7fc bfcc 	b.w	202a48 <gpio_port_isr>

00205ab0 <gpio_port_d_isr>:
  205ab0:	2003      	movs	r0, #3
  205ab2:	f7fc bfc9 	b.w	202a48 <gpio_port_isr>

00205ab6 <send>:
  205ab6:	b510      	push	{r4, lr}
  205ab8:	460c      	mov	r4, r1
  205aba:	f7fd f985 	bl	202dc8 <prepare>
  205abe:	4620      	mov	r0, r4
  205ac0:	e8bd 4010 	ldmia.w	sp!, {r4, lr}
  205ac4:	f7fd b9b2 	b.w	202e2c <transmit>

00205ac8 <putchar>:
  205ac8:	b510      	push	{r4, lr}
  205aca:	4604      	mov	r4, r0
  205acc:	b2c1      	uxtb	r1, r0
  205ace:	2000      	movs	r0, #0
  205ad0:	f7fc ff1c 	bl	20290c <uart_write_byte>
  205ad4:	4620      	mov	r0, r4
  205ad6:	bd10      	pop	{r4, pc}

00205ad8 <dbg_send_bytes>:
  205ad8:	b570      	push	{r4, r5, r6, lr}
  205ada:	4605      	mov	r5, r0
  205adc:	4604      	mov	r4, r0
  205ade:	1846      	adds	r6, r0, r1
  205ae0:	1b60      	subs	r0, r4, r5
  205ae2:	b144      	cbz	r4, 205af6 <dbg_send_bytes+0x1e>
  205ae4:	7823      	ldrb	r3, [r4, #0]
  205ae6:	b133      	cbz	r3, 205af6 <dbg_send_bytes+0x1e>
  205ae8:	42b4      	cmp	r4, r6
  205aea:	d004      	beq.n	205af6 <dbg_send_bytes+0x1e>
  205aec:	4618      	mov	r0, r3
  205aee:	3401      	adds	r4, #1
  205af0:	f7ff ffea 	bl	205ac8 <putchar>
  205af4:	e7f4      	b.n	205ae0 <dbg_send_bytes+0x8>
  205af6:	bd70      	pop	{r4, r5, r6, pc}

00205af8 <puts>:
  205af8:	b538      	push	{r3, r4, r5, lr}
  205afa:	4605      	mov	r5, r0
  205afc:	2400      	movs	r4, #0
  205afe:	f815 0b01 	ldrb.w	r0, [r5], #1
  205b02:	b120      	cbz	r0, 205b0e <puts+0x16>
  205b04:	f7ff ffe0 	bl	205ac8 <putchar>
  205b08:	3401      	adds	r4, #1
  205b0a:	2d00      	cmp	r5, #0
  205b0c:	d1f7      	bne.n	205afe <puts+0x6>
  205b0e:	200a      	movs	r0, #10
  205b10:	f7ff ffda 	bl	205ac8 <putchar>
  205b14:	4620      	mov	r0, r4
  205b16:	bd38      	pop	{r3, r4, r5, pc}

00205b18 <write_str>:
  205b18:	b508      	push	{r3, lr}
  205b1a:	4608      	mov	r0, r1
  205b1c:	b112      	cbz	r2, 205b24 <write_str+0xc>
  205b1e:	4611      	mov	r1, r2
  205b20:	f7ff ffda 	bl	205ad8 <dbg_send_bytes>
  205b24:	2000      	movs	r0, #0
  205b26:	bd08      	pop	{r3, pc}

00205b28 <autostart_start>:
  205b28:	b510      	push	{r4, lr}
  205b2a:	1f04      	subs	r4, r0, #4
  205b2c:	f854 0f04 	ldr.w	r0, [r4, #4]!
  205b30:	b118      	cbz	r0, 205b3a <autostart_start+0x12>
  205b32:	2100      	movs	r1, #0
  205b34:	f7fe faf2 	bl	20411c <process_start>
  205b38:	e7f8      	b.n	205b2c <autostart_start+0x4>
  205b3a:	bd10      	pop	{r4, pc}

00205b3c <energest_init>:
  205b3c:	4770      	bx	lr

00205b3e <etimer_set>:
  205b3e:	b510      	push	{r4, lr}
  205b40:	4604      	mov	r4, r0
  205b42:	f000 f80d 	bl	205b60 <timer_set>
  205b46:	4620      	mov	r0, r4
  205b48:	e8bd 4010 	ldmia.w	sp!, {r4, lr}
  205b4c:	f7fe b98a 	b.w	203e64 <add_timer>

00205b50 <call_process>:
  205b50:	7b83      	ldrb	r3, [r0, #14]
  205b52:	07db      	lsls	r3, r3, #31
  205b54:	d501      	bpl.n	205b5a <call_process+0xa>
  205b56:	f7fe b9c7 	b.w	203ee8 <call_process.part.0>
  205b5a:	4770      	bx	lr

00205b5c <rtimer_init>:
  205b5c:	f7ff bf90 	b.w	205a80 <rtimer_arch_init>

00205b60 <timer_set>:
  205b60:	b510      	push	{r4, lr}
  205b62:	6041      	str	r1, [r0, #4]
  205b64:	4604      	mov	r4, r0
  205b66:	f7fc fd35 	bl	2025d4 <clock_time>
  205b6a:	6020      	str	r0, [r4, #0]
  205b6c:	bd10      	pop	{r4, pc}

00205b6e <timer_expired>:
  205b6e:	b510      	push	{r4, lr}
  205b70:	4604      	mov	r4, r0
  205b72:	f7fc fd2f 	bl	2025d4 <clock_time>
  205b76:	6823      	ldr	r3, [r4, #0]
  205b78:	f1c3 0301 	rsb	r3, r3, #1
  205b7c:	4403      	add	r3, r0
  205b7e:	6860      	ldr	r0, [r4, #4]
  205b80:	4283      	cmp	r3, r0
  205b82:	bf94      	ite	ls
  205b84:	2000      	movls	r0, #0
  205b86:	2001      	movhi	r0, #1
  205b88:	bd10      	pop	{r4, pc}

00205b8a <list_init>:
  205b8a:	2300      	movs	r3, #0
  205b8c:	6003      	str	r3, [r0, #0]
  205b8e:	4770      	bx	lr

00205b90 <list_head>:
  205b90:	6800      	ldr	r0, [r0, #0]
  205b92:	4770      	bx	lr

00205b94 <list_tail>:
  205b94:	6800      	ldr	r0, [r0, #0]
  205b96:	b900      	cbnz	r0, 205b9a <list_tail+0x6>
  205b98:	4770      	bx	lr
  205b9a:	6803      	ldr	r3, [r0, #0]
  205b9c:	b10b      	cbz	r3, 205ba2 <list_tail+0xe>
  205b9e:	4618      	mov	r0, r3
  205ba0:	e7fb      	b.n	205b9a <list_tail+0x6>
  205ba2:	4770      	bx	lr

00205ba4 <list_remove>:
  205ba4:	6803      	ldr	r3, [r0, #0]
  205ba6:	b510      	push	{r4, lr}
  205ba8:	b173      	cbz	r3, 205bc8 <list_remove+0x24>
  205baa:	2400      	movs	r4, #0
  205bac:	4299      	cmp	r1, r3
  205bae:	681a      	ldr	r2, [r3, #0]
  205bb0:	d106      	bne.n	205bc0 <list_remove+0x1c>
  205bb2:	b90c      	cbnz	r4, 205bb8 <list_remove+0x14>
  205bb4:	6002      	str	r2, [r0, #0]
  205bb6:	e000      	b.n	205bba <list_remove+0x16>
  205bb8:	6022      	str	r2, [r4, #0]
  205bba:	2200      	movs	r2, #0
  205bbc:	601a      	str	r2, [r3, #0]
  205bbe:	bd10      	pop	{r4, pc}
  205bc0:	461c      	mov	r4, r3
  205bc2:	b10a      	cbz	r2, 205bc8 <list_remove+0x24>
  205bc4:	4613      	mov	r3, r2
  205bc6:	e7f1      	b.n	205bac <list_remove+0x8>
  205bc8:	bd10      	pop	{r4, pc}

00205bca <list_add>:
  205bca:	b538      	push	{r3, r4, r5, lr}
  205bcc:	4605      	mov	r5, r0
  205bce:	f7ff ffe9 	bl	205ba4 <list_remove>
  205bd2:	2300      	movs	r3, #0
  205bd4:	600b      	str	r3, [r1, #0]
  205bd6:	f7ff ffdd 	bl	205b94 <list_tail>
  205bda:	b908      	cbnz	r0, 205be0 <list_add+0x16>
  205bdc:	6029      	str	r1, [r5, #0]
  205bde:	bd38      	pop	{r3, r4, r5, pc}
  205be0:	6001      	str	r1, [r0, #0]
  205be2:	bd38      	pop	{r3, r4, r5, pc}

00205be4 <list_push>:
  205be4:	b538      	push	{r3, r4, r5, lr}
  205be6:	4604      	mov	r4, r0
  205be8:	f7ff ffdc 	bl	205ba4 <list_remove>
  205bec:	6803      	ldr	r3, [r0, #0]
  205bee:	600b      	str	r3, [r1, #0]
  205bf0:	6021      	str	r1, [r4, #0]
  205bf2:	bd38      	pop	{r3, r4, r5, pc}

00205bf4 <list_length>:
  205bf4:	6803      	ldr	r3, [r0, #0]
  205bf6:	2000      	movs	r0, #0
  205bf8:	b113      	cbz	r3, 205c00 <list_length+0xc>
  205bfa:	3001      	adds	r0, #1
  205bfc:	681b      	ldr	r3, [r3, #0]
  205bfe:	e7fb      	b.n	205bf8 <list_length+0x4>
  205c00:	4770      	bx	lr

00205c02 <list_item_next>:
  205c02:	b100      	cbz	r0, 205c06 <list_item_next+0x4>
  205c04:	6800      	ldr	r0, [r0, #0]
  205c06:	4770      	bx	lr

00205c08 <memb_init>:
  205c08:	b510      	push	{r4, lr}
  205c0a:	4604      	mov	r4, r0
  205c0c:	8842      	ldrh	r2, [r0, #2]
  205c0e:	2100      	movs	r1, #0
  205c10:	6840      	ldr	r0, [r0, #4]
  205c12:	f7ff feb3 	bl	20597c <memset>
  205c16:	8823      	ldrh	r3, [r4, #0]
  205c18:	8862      	ldrh	r2, [r4, #2]
  205c1a:	68a0      	ldr	r0, [r4, #8]
  205c1c:	435a      	muls	r2, r3
  205c1e:	e8bd 4010 	ldmia.w	sp!, {r4, lr}
  205c22:	2100      	movs	r1, #0
  205c24:	f7ff beaa 	b.w	20597c <memset>

00205c28 <memb_alloc>:
  205c28:	b510      	push	{r4, lr}
  205c2a:	8841      	ldrh	r1, [r0, #2]
  205c2c:	2300      	movs	r3, #0
  205c2e:	428b      	cmp	r3, r1
  205c30:	da0c      	bge.n	205c4c <memb_alloc+0x24>
  205c32:	6842      	ldr	r2, [r0, #4]
  205c34:	18d4      	adds	r4, r2, r3
  205c36:	5cd2      	ldrb	r2, [r2, r3]
  205c38:	b932      	cbnz	r2, 205c48 <memb_alloc+0x20>
  205c3a:	2201      	movs	r2, #1
  205c3c:	7022      	strb	r2, [r4, #0]
  205c3e:	8802      	ldrh	r2, [r0, #0]
  205c40:	6880      	ldr	r0, [r0, #8]
  205c42:	fb03 0002 	mla	r0, r3, r2, r0
  205c46:	bd10      	pop	{r4, pc}
  205c48:	3301      	adds	r3, #1
  205c4a:	e7f0      	b.n	205c2e <memb_alloc+0x6>
  205c4c:	2000      	movs	r0, #0
  205c4e:	bd10      	pop	{r4, pc}

00205c50 <memb_free>:
  205c50:	b530      	push	{r4, r5, lr}
  205c52:	6882      	ldr	r2, [r0, #8]
  205c54:	8844      	ldrh	r4, [r0, #2]
  205c56:	2300      	movs	r3, #0
  205c58:	42a3      	cmp	r3, r4
  205c5a:	da0d      	bge.n	205c78 <memb_free+0x28>
  205c5c:	428a      	cmp	r2, r1
  205c5e:	d107      	bne.n	205c70 <memb_free+0x20>
  205c60:	6841      	ldr	r1, [r0, #4]
  205c62:	5cca      	ldrb	r2, [r1, r3]
  205c64:	b10a      	cbz	r2, 205c6a <memb_free+0x1a>
  205c66:	3a01      	subs	r2, #1
  205c68:	54ca      	strb	r2, [r1, r3]
  205c6a:	6842      	ldr	r2, [r0, #4]
  205c6c:	5cd0      	ldrb	r0, [r2, r3]
  205c6e:	bd30      	pop	{r4, r5, pc}
  205c70:	8805      	ldrh	r5, [r0, #0]
  205c72:	3301      	adds	r3, #1
  205c74:	442a      	add	r2, r5
  205c76:	e7ef      	b.n	205c58 <memb_free+0x8>
  205c78:	20ff      	movs	r0, #255	; 0xff
  205c7a:	bd30      	pop	{r4, r5, pc}

00205c7c <memb_inmemb>:
  205c7c:	6882      	ldr	r2, [r0, #8]
  205c7e:	428a      	cmp	r2, r1
  205c80:	d808      	bhi.n	205c94 <memb_inmemb+0x18>
  205c82:	8843      	ldrh	r3, [r0, #2]
  205c84:	8800      	ldrh	r0, [r0, #0]
  205c86:	fb00 2003 	mla	r0, r0, r3, r2
  205c8a:	4281      	cmp	r1, r0
  205c8c:	bf2c      	ite	cs
  205c8e:	2000      	movcs	r0, #0
  205c90:	2001      	movcc	r0, #1
  205c92:	4770      	bx	lr
  205c94:	2000      	movs	r0, #0
  205c96:	4770      	bx	lr

00205c98 <ringbuf_init>:
  205c98:	2300      	movs	r3, #0
  205c9a:	3a01      	subs	r2, #1
  205c9c:	6001      	str	r1, [r0, #0]
  205c9e:	7102      	strb	r2, [r0, #4]
  205ca0:	7143      	strb	r3, [r0, #5]
  205ca2:	7183      	strb	r3, [r0, #6]
  205ca4:	4770      	bx	lr

00205ca6 <ringbuf_put>:
  205ca6:	b510      	push	{r4, lr}
  205ca8:	7942      	ldrb	r2, [r0, #5]
  205caa:	7983      	ldrb	r3, [r0, #6]
  205cac:	7904      	ldrb	r4, [r0, #4]
  205cae:	1ad3      	subs	r3, r2, r3
  205cb0:	ea34 0303 	bics.w	r3, r4, r3
  205cb4:	d008      	beq.n	205cc8 <ringbuf_put+0x22>
  205cb6:	6803      	ldr	r3, [r0, #0]
  205cb8:	5499      	strb	r1, [r3, r2]
  205cba:	7943      	ldrb	r3, [r0, #5]
  205cbc:	1c5a      	adds	r2, r3, #1
  205cbe:	7903      	ldrb	r3, [r0, #4]
  205cc0:	4013      	ands	r3, r2
  205cc2:	7143      	strb	r3, [r0, #5]
  205cc4:	2001      	movs	r0, #1
  205cc6:	bd10      	pop	{r4, pc}
  205cc8:	2000      	movs	r0, #0
  205cca:	bd10      	pop	{r4, pc}

00205ccc <ringbuf_get>:
  205ccc:	7983      	ldrb	r3, [r0, #6]
  205cce:	7942      	ldrb	r2, [r0, #5]
  205cd0:	7901      	ldrb	r1, [r0, #4]
  205cd2:	1ad2      	subs	r2, r2, r3
  205cd4:	420a      	tst	r2, r1
  205cd6:	bf1f      	itttt	ne
  205cd8:	6802      	ldrne	r2, [r0, #0]
  205cda:	5cd2      	ldrbne	r2, [r2, r3]
  205cdc:	3301      	addne	r3, #1
  205cde:	400b      	andne	r3, r1
  205ce0:	bf1a      	itte	ne
  205ce2:	7183      	strbne	r3, [r0, #6]
  205ce4:	4610      	movne	r0, r2
  205ce6:	f04f 30ff 	moveq.w	r0, #4294967295	; 0xffffffff
  205cea:	4770      	bx	lr

00205cec <abc_close>:
  205cec:	f7fe bcfc 	b.w	2046e8 <channel_close>

00205cf0 <abc_send>:
  205cf0:	f7fe bd44 	b.w	20477c <rime_output>

00205cf4 <abc_input>:
  205cf4:	6903      	ldr	r3, [r0, #16]
  205cf6:	681b      	ldr	r3, [r3, #0]
  205cf8:	b103      	cbz	r3, 205cfc <abc_input+0x8>
  205cfa:	4718      	bx	r3
  205cfc:	4770      	bx	lr

00205cfe <abc_sent>:
  205cfe:	6903      	ldr	r3, [r0, #16]
  205d00:	685b      	ldr	r3, [r3, #4]
  205d02:	b103      	cbz	r3, 205d06 <abc_sent+0x8>
  205d04:	4718      	bx	r3
  205d06:	4770      	bx	lr

00205d08 <adv_packet_sent>:
  205d08:	4770      	bx	lr

00205d0a <adv_packet_received>:
  205d0a:	b5f7      	push	{r0, r1, r2, r4, r5, r6, r7, lr}
  205d0c:	460f      	mov	r7, r1
  205d0e:	f7fe fdbf 	bl	204890 <packetbuf_dataptr>
  205d12:	8803      	ldrh	r3, [r0, #0]
  205d14:	4604      	mov	r4, r0
  205d16:	f8ad 3000 	strh.w	r3, [sp]
  205d1a:	f8bd 6000 	ldrh.w	r6, [sp]
  205d1e:	f7fe fdcb 	bl	2048b8 <packetbuf_datalen>
  205d22:	00b3      	lsls	r3, r6, #2
  205d24:	3302      	adds	r3, #2
  205d26:	4283      	cmp	r3, r0
  205d28:	d80f      	bhi.n	205d4a <adv_packet_received+0x40>
  205d2a:	3402      	adds	r4, #2
  205d2c:	2500      	movs	r5, #0
  205d2e:	42b5      	cmp	r5, r6
  205d30:	da0b      	bge.n	205d4a <adv_packet_received+0x40>
  205d32:	f854 0b04 	ldr.w	r0, [r4], #4
  205d36:	3501      	adds	r5, #1
  205d38:	9001      	str	r0, [sp, #4]
  205d3a:	f8bd 2006 	ldrh.w	r2, [sp, #6]
  205d3e:	f8bd 1004 	ldrh.w	r1, [sp, #4]
  205d42:	4638      	mov	r0, r7
  205d44:	f7fe fbd6 	bl	2044f4 <announcement_heard>
  205d48:	e7f1      	b.n	205d2e <adv_packet_received+0x24>
  205d4a:	b003      	add	sp, #12
  205d4c:	bdf0      	pop	{r4, r5, r6, r7, pc}

00205d4e <sent_by_abc>:
  205d4e:	6943      	ldr	r3, [r0, #20]
  205d50:	685b      	ldr	r3, [r3, #4]
  205d52:	b103      	cbz	r3, 205d56 <sent_by_abc+0x8>
  205d54:	4718      	bx	r3
  205d56:	4770      	bx	lr

00205d58 <recv_from_abc>:
  205d58:	b513      	push	{r0, r1, r4, lr}
  205d5a:	4604      	mov	r4, r0
  205d5c:	201a      	movs	r0, #26
  205d5e:	f7fe fe67 	bl	204a30 <packetbuf_addr>
  205d62:	4601      	mov	r1, r0
  205d64:	a801      	add	r0, sp, #4
  205d66:	f000 f96d 	bl	206044 <linkaddr_copy>
  205d6a:	6963      	ldr	r3, [r4, #20]
  205d6c:	681b      	ldr	r3, [r3, #0]
  205d6e:	b113      	cbz	r3, 205d76 <recv_from_abc+0x1e>
  205d70:	a901      	add	r1, sp, #4
  205d72:	4620      	mov	r0, r4
  205d74:	4798      	blx	r3
  205d76:	b002      	add	sp, #8
  205d78:	bd10      	pop	{r4, pc}

00205d7a <broadcast_close>:
  205d7a:	f7ff bfb7 	b.w	205cec <abc_close>

00205d7e <header_size>:
  205d7e:	1c83      	adds	r3, r0, #2
  205d80:	2000      	movs	r0, #0
  205d82:	3302      	adds	r3, #2
  205d84:	f813 2c04 	ldrb.w	r2, [r3, #-4]
  205d88:	b11a      	cbz	r2, 205d92 <header_size+0x14>
  205d8a:	f813 2c03 	ldrb.w	r2, [r3, #-3]
  205d8e:	4410      	add	r0, r2
  205d90:	e7f7      	b.n	205d82 <header_size+0x4>
  205d92:	4770      	bx	lr

00205d94 <get_bits>:
  205d94:	2b07      	cmp	r3, #7
  205d96:	e92d 43f8 	stmdb	sp!, {r3, r4, r5, r6, r7, r8, r9, lr}
  205d9a:	4607      	mov	r7, r0
  205d9c:	4688      	mov	r8, r1
  205d9e:	4615      	mov	r5, r2
  205da0:	461c      	mov	r4, r3
  205da2:	dc07      	bgt.n	205db4 <get_bits+0x20>
  205da4:	461a      	mov	r2, r3
  205da6:	4629      	mov	r1, r5
  205da8:	4640      	mov	r0, r8
  205daa:	f7fe fc57 	bl	20465c <get_bits_in_byte>
  205dae:	7038      	strb	r0, [r7, #0]
  205db0:	e8bd 83f8 	ldmia.w	sp!, {r3, r4, r5, r6, r7, r8, r9, pc}
  205db4:	ea4f 09e3 	mov.w	r9, r3, asr #3
  205db8:	b1aa      	cbz	r2, 205de6 <get_bits+0x52>
  205dba:	2600      	movs	r6, #0
  205dbc:	eb08 0006 	add.w	r0, r8, r6
  205dc0:	2208      	movs	r2, #8
  205dc2:	4629      	mov	r1, r5
  205dc4:	f7fe fc4a 	bl	20465c <get_bits_in_byte>
  205dc8:	55b8      	strb	r0, [r7, r6]
  205dca:	3601      	adds	r6, #1
  205dcc:	454e      	cmp	r6, r9
  205dce:	d1f5      	bne.n	205dbc <get_bits+0x28>
  205dd0:	f014 0207 	ands.w	r2, r4, #7
  205dd4:	d017      	beq.n	205e06 <get_bits+0x72>
  205dd6:	4629      	mov	r1, r5
  205dd8:	eb08 0006 	add.w	r0, r8, r6
  205ddc:	f7fe fc3e 	bl	20465c <get_bits_in_byte>
  205de0:	55b8      	strb	r0, [r7, r6]
  205de2:	e8bd 83f8 	ldmia.w	sp!, {r3, r4, r5, r6, r7, r8, r9, pc}
  205de6:	f818 3005 	ldrb.w	r3, [r8, r5]
  205dea:	557b      	strb	r3, [r7, r5]
  205dec:	3501      	adds	r5, #1
  205dee:	45a9      	cmp	r9, r5
  205df0:	d1f9      	bne.n	205de6 <get_bits+0x52>
  205df2:	f014 0207 	ands.w	r2, r4, #7
  205df6:	d006      	beq.n	205e06 <get_bits+0x72>
  205df8:	2100      	movs	r1, #0
  205dfa:	eb08 0009 	add.w	r0, r8, r9
  205dfe:	f7fe fc2d 	bl	20465c <get_bits_in_byte>
  205e02:	f807 0009 	strb.w	r0, [r7, r9]
  205e06:	e8bd 83f8 	ldmia.w	sp!, {r3, r4, r5, r6, r7, r8, r9, pc}

00205e0a <unpack_header>:
  205e0a:	e92d 43f7 	stmdb	sp!, {r0, r1, r2, r4, r5, r6, r7, r8, r9, lr}
  205e0e:	f7fe fd3f 	bl	204890 <packetbuf_dataptr>
  205e12:	4604      	mov	r4, r0
  205e14:	2002      	movs	r0, #2
  205e16:	f7fe fd21 	bl	20485c <packetbuf_hdrreduce>
  205e1a:	b908      	cbnz	r0, 205e20 <unpack_header+0x16>
  205e1c:	2000      	movs	r0, #0
  205e1e:	e044      	b.n	205eaa <unpack_header+0xa0>
  205e20:	7860      	ldrb	r0, [r4, #1]
  205e22:	7823      	ldrb	r3, [r4, #0]
  205e24:	eb03 2000 	add.w	r0, r3, r0, lsl #8
  205e28:	b280      	uxth	r0, r0
  205e2a:	f7fe fc63 	bl	2046f4 <channel_lookup>
  205e2e:	4605      	mov	r5, r0
  205e30:	2800      	cmp	r0, #0
  205e32:	d0f3      	beq.n	205e1c <unpack_header+0x12>
  205e34:	f7fe fd2c 	bl	204890 <packetbuf_dataptr>
  205e38:	4680      	mov	r8, r0
  205e3a:	7b28      	ldrb	r0, [r5, #12]
  205e3c:	f010 0307 	ands.w	r3, r0, #7
  205e40:	bf18      	it	ne
  205e42:	2301      	movne	r3, #1
  205e44:	eb03 00d0 	add.w	r0, r3, r0, lsr #3
  205e48:	f7fe fd08 	bl	20485c <packetbuf_hdrreduce>
  205e4c:	2800      	cmp	r0, #0
  205e4e:	d0e5      	beq.n	205e1c <unpack_header+0x12>
  205e50:	2600      	movs	r6, #0
  205e52:	46b1      	mov	r9, r6
  205e54:	68ac      	ldr	r4, [r5, #8]
  205e56:	3402      	adds	r4, #2
  205e58:	f814 3c02 	ldrb.w	r3, [r4, #-2]
  205e5c:	b323      	cbz	r3, 205ea8 <unpack_header+0x9e>
  205e5e:	2b19      	cmp	r3, #25
  205e60:	f814 7c01 	ldrb.w	r7, [r4, #-1]
  205e64:	f006 0207 	and.w	r2, r6, #7
  205e68:	eb08 01e6 	add.w	r1, r8, r6, asr #3
  205e6c:	d909      	bls.n	205e82 <unpack_header+0x78>
  205e6e:	a801      	add	r0, sp, #4
  205e70:	463b      	mov	r3, r7
  205e72:	f7ff ff8f 	bl	205d94 <get_bits>
  205e76:	a901      	add	r1, sp, #4
  205e78:	f814 0c02 	ldrb.w	r0, [r4, #-2]
  205e7c:	f7fe fdcc 	bl	204a18 <packetbuf_set_addr>
  205e80:	e00f      	b.n	205ea2 <unpack_header+0x98>
  205e82:	463b      	mov	r3, r7
  205e84:	a801      	add	r0, sp, #4
  205e86:	f8ad 9004 	strh.w	r9, [sp, #4]
  205e8a:	f7ff ff83 	bl	205d94 <get_bits>
  205e8e:	f89d 1005 	ldrb.w	r1, [sp, #5]
  205e92:	f89d 3004 	ldrb.w	r3, [sp, #4]
  205e96:	f814 0c02 	ldrb.w	r0, [r4, #-2]
  205e9a:	ea43 2101 	orr.w	r1, r3, r1, lsl #8
  205e9e:	f7fe fdad 	bl	2049fc <packetbuf_set_attr>
  205ea2:	443e      	add	r6, r7
  205ea4:	3402      	adds	r4, #2
  205ea6:	e7d7      	b.n	205e58 <unpack_header+0x4e>
  205ea8:	4628      	mov	r0, r5
  205eaa:	b003      	add	sp, #12
  205eac:	e8bd 83f0 	ldmia.w	sp!, {r4, r5, r6, r7, r8, r9, pc}

00205eb0 <set_bits>:
  205eb0:	2b07      	cmp	r3, #7
  205eb2:	e92d 41f0 	stmdb	sp!, {r4, r5, r6, r7, r8, lr}
  205eb6:	dc0f      	bgt.n	205ed8 <set_bits+0x28>
  205eb8:	7812      	ldrb	r2, [r2, #0]
  205eba:	f1c1 0110 	rsb	r1, r1, #16
  205ebe:	1acb      	subs	r3, r1, r3
  205ec0:	fa02 f303 	lsl.w	r3, r2, r3
  205ec4:	7802      	ldrb	r2, [r0, #0]
  205ec6:	f3c3 2107 	ubfx	r1, r3, #8, #8
  205eca:	430a      	orrs	r2, r1
  205ecc:	7841      	ldrb	r1, [r0, #1]
  205ece:	7002      	strb	r2, [r0, #0]
  205ed0:	430b      	orrs	r3, r1
  205ed2:	7043      	strb	r3, [r0, #1]
  205ed4:	e8bd 81f0 	ldmia.w	sp!, {r4, r5, r6, r7, r8, pc}
  205ed8:	ea4f 0ee3 	mov.w	lr, r3, asr #3
  205edc:	b121      	cbz	r1, 205ee8 <set_bits+0x38>
  205ede:	4605      	mov	r5, r0
  205ee0:	2400      	movs	r4, #0
  205ee2:	f1c1 0c08 	rsb	ip, r1, #8
  205ee6:	e01a      	b.n	205f1e <set_bits+0x6e>
  205ee8:	5c54      	ldrb	r4, [r2, r1]
  205eea:	5444      	strb	r4, [r0, r1]
  205eec:	3101      	adds	r1, #1
  205eee:	4571      	cmp	r1, lr
  205ef0:	d1fa      	bne.n	205ee8 <set_bits+0x38>
  205ef2:	f013 0307 	ands.w	r3, r3, #7
  205ef6:	d03d      	beq.n	205f74 <set_bits+0xc4>
  205ef8:	5c52      	ldrb	r2, [r2, r1]
  205efa:	f1c3 0508 	rsb	r5, r3, #8
  205efe:	412a      	asrs	r2, r5
  205f00:	f1c3 0310 	rsb	r3, r3, #16
  205f04:	fa02 f303 	lsl.w	r3, r2, r3
  205f08:	5c42      	ldrb	r2, [r0, r1]
  205f0a:	f3c3 2507 	ubfx	r5, r3, #8, #8
  205f0e:	432a      	orrs	r2, r5
  205f10:	1844      	adds	r4, r0, r1
  205f12:	5442      	strb	r2, [r0, r1]
  205f14:	7862      	ldrb	r2, [r4, #1]
  205f16:	4313      	orrs	r3, r2
  205f18:	7063      	strb	r3, [r4, #1]
  205f1a:	e8bd 81f0 	ldmia.w	sp!, {r4, r5, r6, r7, r8, pc}
  205f1e:	4574      	cmp	r4, lr
  205f20:	f105 0501 	add.w	r5, r5, #1
  205f24:	d00f      	beq.n	205f46 <set_bits+0x96>
  205f26:	5d16      	ldrb	r6, [r2, r4]
  205f28:	f815 7c01 	ldrb.w	r7, [r5, #-1]
  205f2c:	fa06 f60c 	lsl.w	r6, r6, ip
  205f30:	f3c6 2807 	ubfx	r8, r6, #8, #8
  205f34:	ea48 0707 	orr.w	r7, r8, r7
  205f38:	f805 7c01 	strb.w	r7, [r5, #-1]
  205f3c:	782f      	ldrb	r7, [r5, #0]
  205f3e:	3401      	adds	r4, #1
  205f40:	433e      	orrs	r6, r7
  205f42:	702e      	strb	r6, [r5, #0]
  205f44:	e7eb      	b.n	205f1e <set_bits+0x6e>
  205f46:	f013 0307 	ands.w	r3, r3, #7
  205f4a:	d013      	beq.n	205f74 <set_bits+0xc4>
  205f4c:	5d12      	ldrb	r2, [r2, r4]
  205f4e:	f1c3 0608 	rsb	r6, r3, #8
  205f52:	4431      	add	r1, r6
  205f54:	fa42 f101 	asr.w	r1, r2, r1
  205f58:	b2c9      	uxtb	r1, r1
  205f5a:	f1c3 0310 	rsb	r3, r3, #16
  205f5e:	5d02      	ldrb	r2, [r0, r4]
  205f60:	fa01 f303 	lsl.w	r3, r1, r3
  205f64:	f3c3 2107 	ubfx	r1, r3, #8, #8
  205f68:	430a      	orrs	r2, r1
  205f6a:	1905      	adds	r5, r0, r4
  205f6c:	5502      	strb	r2, [r0, r4]
  205f6e:	786a      	ldrb	r2, [r5, #1]
  205f70:	4313      	orrs	r3, r2
  205f72:	706b      	strb	r3, [r5, #1]
  205f74:	e8bd 81f0 	ldmia.w	sp!, {r4, r5, r6, r7, r8, pc}

00205f78 <pack_header>:
  205f78:	e92d 43f7 	stmdb	sp!, {r0, r1, r2, r4, r5, r6, r7, r8, r9, lr}
  205f7c:	7b04      	ldrb	r4, [r0, #12]
  205f7e:	4605      	mov	r5, r0
  205f80:	f014 0307 	ands.w	r3, r4, #7
  205f84:	bf18      	it	ne
  205f86:	2301      	movne	r3, #1
  205f88:	eb03 04d4 	add.w	r4, r3, r4, lsr #3
  205f8c:	1ca0      	adds	r0, r4, #2
  205f8e:	f7fe fcb1 	bl	2048f4 <packetbuf_hdralloc>
  205f92:	b390      	cbz	r0, 205ffa <pack_header+0x82>
  205f94:	f7fe fc86 	bl	2048a4 <packetbuf_hdrptr>
  205f98:	88ab      	ldrh	r3, [r5, #4]
  205f9a:	7003      	strb	r3, [r0, #0]
  205f9c:	88ab      	ldrh	r3, [r5, #4]
  205f9e:	0a1b      	lsrs	r3, r3, #8
  205fa0:	7043      	strb	r3, [r0, #1]
  205fa2:	f7fe fc7f 	bl	2048a4 <packetbuf_hdrptr>
  205fa6:	1c87      	adds	r7, r0, #2
  205fa8:	4622      	mov	r2, r4
  205faa:	2100      	movs	r1, #0
  205fac:	4638      	mov	r0, r7
  205fae:	f7ff fce5 	bl	20597c <memset>
  205fb2:	68ac      	ldr	r4, [r5, #8]
  205fb4:	2500      	movs	r5, #0
  205fb6:	3402      	adds	r4, #2
  205fb8:	f814 0c02 	ldrb.w	r0, [r4, #-2]
  205fbc:	b1e0      	cbz	r0, 205ff8 <pack_header+0x80>
  205fbe:	2819      	cmp	r0, #25
  205fc0:	f814 6c01 	ldrb.w	r6, [r4, #-1]
  205fc4:	eb07 08e5 	add.w	r8, r7, r5, asr #3
  205fc8:	f005 0907 	and.w	r9, r5, #7
  205fcc:	d904      	bls.n	205fd8 <pack_header+0x60>
  205fce:	f7fe fd2f 	bl	204a30 <packetbuf_addr>
  205fd2:	4633      	mov	r3, r6
  205fd4:	4602      	mov	r2, r0
  205fd6:	e008      	b.n	205fea <pack_header+0x72>
  205fd8:	f7fe fd18 	bl	204a0c <packetbuf_attr>
  205fdc:	4633      	mov	r3, r6
  205fde:	f88d 0004 	strb.w	r0, [sp, #4]
  205fe2:	0a00      	lsrs	r0, r0, #8
  205fe4:	f88d 0005 	strb.w	r0, [sp, #5]
  205fe8:	aa01      	add	r2, sp, #4
  205fea:	4649      	mov	r1, r9
  205fec:	4640      	mov	r0, r8
  205fee:	f7ff ff5f 	bl	205eb0 <set_bits>
  205ff2:	4435      	add	r5, r6
  205ff4:	3402      	adds	r4, #2
  205ff6:	e7df      	b.n	205fb8 <pack_header+0x40>
  205ff8:	2001      	movs	r0, #1
  205ffa:	b003      	add	sp, #12
  205ffc:	e8bd 83f0 	ldmia.w	sp!, {r4, r5, r6, r7, r8, r9, pc}

00206000 <chameleon_init>:
  206000:	f7fe bb64 	b.w	2046cc <channel_init>

00206004 <channel_set_attributes>:
  206004:	b538      	push	{r3, r4, r5, lr}
  206006:	460d      	mov	r5, r1
  206008:	f7fe fb74 	bl	2046f4 <channel_lookup>
  20600c:	4604      	mov	r4, r0
  20600e:	b120      	cbz	r0, 20601a <channel_set_attributes+0x16>
  206010:	6085      	str	r5, [r0, #8]
  206012:	4628      	mov	r0, r5
  206014:	f7fe fb54 	bl	2046c0 <chameleon_hdrsize>
  206018:	7320      	strb	r0, [r4, #12]
  20601a:	bd38      	pop	{r3, r4, r5, pc}

0020601c <init>:
  20601c:	b510      	push	{r4, lr}
  20601e:	f7fe fd17 	bl	204a50 <queuebuf_init>
  206022:	f7fe fc95 	bl	204950 <packetbuf_clear>
  206026:	f7fe fa53 	bl	2044d0 <announcement_init>
  20602a:	f7ff ffe9 	bl	206000 <chameleon_init>
  20602e:	e8bd 4010 	ldmia.w	sp!, {r4, lr}
  206032:	f44f 23e1 	mov.w	r3, #460800	; 0x70800
  206036:	f44f 52f0 	mov.w	r2, #7680	; 0x1e00
  20603a:	f44f 7100 	mov.w	r1, #512	; 0x200
  20603e:	2002      	movs	r0, #2
  206040:	f7fe bad4 	b.w	2045ec <broadcast_announcement_init>

00206044 <linkaddr_copy>:
  206044:	880b      	ldrh	r3, [r1, #0]
  206046:	8003      	strh	r3, [r0, #0]
  206048:	4770      	bx	lr

0020604a <linkaddr_cmp>:
  20604a:	b508      	push	{r3, lr}
  20604c:	2202      	movs	r2, #2
  20604e:	f7ff fbed 	bl	20582c <memcmp>
  206052:	fab0 f080 	clz	r0, r0
  206056:	0940      	lsrs	r0, r0, #5
  206058:	bd08      	pop	{r3, pc}

0020605a <queuebuf_update_attr_from_packetbuf>:
  20605a:	6800      	ldr	r0, [r0, #0]
  20605c:	f100 01b6 	add.w	r1, r0, #182	; 0xb6
  206060:	3082      	adds	r0, #130	; 0x82
  206062:	f7fe bca3 	b.w	2049ac <packetbuf_attr_copyto>

00206066 <queuebuf_attr>:
  206066:	6803      	ldr	r3, [r0, #0]
  206068:	eb03 0141 	add.w	r1, r3, r1, lsl #1
  20606c:	f8b1 0082 	ldrh.w	r0, [r1, #130]	; 0x82
  206070:	4770      	bx	lr

00206072 <frame802154_has_panid>:
  206072:	b510      	push	{r4, lr}
  206074:	b310      	cbz	r0, 2060bc <frame802154_has_panid+0x4a>
  206076:	7a03      	ldrb	r3, [r0, #8]
  206078:	2b02      	cmp	r3, #2
  20607a:	d107      	bne.n	20608c <frame802154_has_panid+0x1a>
  20607c:	79c4      	ldrb	r4, [r0, #7]
  20607e:	7903      	ldrb	r3, [r0, #4]
  206080:	b1c4      	cbz	r4, 2060b4 <frame802154_has_panid+0x42>
  206082:	fab3 f383 	clz	r3, r3
  206086:	2400      	movs	r4, #0
  206088:	095b      	lsrs	r3, r3, #5
  20608a:	e013      	b.n	2060b4 <frame802154_has_panid+0x42>
  20608c:	7803      	ldrb	r3, [r0, #0]
  20608e:	2b02      	cmp	r3, #2
  206090:	d00e      	beq.n	2060b0 <frame802154_has_panid+0x3e>
  206092:	7903      	ldrb	r3, [r0, #4]
  206094:	b92b      	cbnz	r3, 2060a2 <frame802154_has_panid+0x30>
  206096:	7a44      	ldrb	r4, [r0, #9]
  206098:	f014 0403 	ands.w	r4, r4, #3
  20609c:	bf18      	it	ne
  20609e:	2401      	movne	r4, #1
  2060a0:	e000      	b.n	2060a4 <frame802154_has_panid+0x32>
  2060a2:	2400      	movs	r4, #0
  2060a4:	79c3      	ldrb	r3, [r0, #7]
  2060a6:	f013 0303 	ands.w	r3, r3, #3
  2060aa:	bf18      	it	ne
  2060ac:	2301      	movne	r3, #1
  2060ae:	e001      	b.n	2060b4 <frame802154_has_panid+0x42>
  2060b0:	2300      	movs	r3, #0
  2060b2:	461c      	mov	r4, r3
  2060b4:	b101      	cbz	r1, 2060b8 <frame802154_has_panid+0x46>
  2060b6:	600c      	str	r4, [r1, #0]
  2060b8:	b102      	cbz	r2, 2060bc <frame802154_has_panid+0x4a>
  2060ba:	6013      	str	r3, [r2, #0]
  2060bc:	bd10      	pop	{r4, pc}

002060be <field_len>:
  2060be:	b537      	push	{r0, r1, r2, r4, r5, lr}
  2060c0:	460d      	mov	r5, r1
  2060c2:	2300      	movs	r3, #0
  2060c4:	600b      	str	r3, [r1, #0]
  2060c6:	808b      	strh	r3, [r1, #4]
  2060c8:	7d43      	ldrb	r3, [r0, #21]
  2060ca:	4604      	mov	r4, r0
  2060cc:	07d9      	lsls	r1, r3, #31
  2060ce:	bf5c      	itt	pl
  2060d0:	2301      	movpl	r3, #1
  2060d2:	702b      	strbpl	r3, [r5, #0]
  2060d4:	7e03      	ldrb	r3, [r0, #24]
  2060d6:	2b01      	cmp	r3, #1
  2060d8:	d80d      	bhi.n	2060f6 <field_len+0x38>
  2060da:	7dc3      	ldrb	r3, [r0, #23]
  2060dc:	079a      	lsls	r2, r3, #30
  2060de:	d008      	beq.n	2060f2 <field_len+0x34>
  2060e0:	7e43      	ldrb	r3, [r0, #25]
  2060e2:	079b      	lsls	r3, r3, #30
  2060e4:	d005      	beq.n	2060f2 <field_len+0x34>
  2060e6:	8bc2      	ldrh	r2, [r0, #30]
  2060e8:	8b83      	ldrh	r3, [r0, #28]
  2060ea:	429a      	cmp	r2, r3
  2060ec:	d101      	bne.n	2060f2 <field_len+0x34>
  2060ee:	2301      	movs	r3, #1
  2060f0:	e000      	b.n	2060f4 <field_len+0x36>
  2060f2:	2300      	movs	r3, #0
  2060f4:	7523      	strb	r3, [r4, #20]
  2060f6:	aa01      	add	r2, sp, #4
  2060f8:	4669      	mov	r1, sp
  2060fa:	f104 0010 	add.w	r0, r4, #16
  2060fe:	f7ff ffb8 	bl	206072 <frame802154_has_panid>
  206102:	9b00      	ldr	r3, [sp, #0]
  206104:	b10b      	cbz	r3, 20610a <field_len+0x4c>
  206106:	2302      	movs	r3, #2
  206108:	70eb      	strb	r3, [r5, #3]
  20610a:	9b01      	ldr	r3, [sp, #4]
  20610c:	b10b      	cbz	r3, 206112 <field_len+0x54>
  20610e:	2302      	movs	r3, #2
  206110:	706b      	strb	r3, [r5, #1]
  206112:	7de3      	ldrb	r3, [r4, #23]
  206114:	f003 0303 	and.w	r3, r3, #3
  206118:	2b02      	cmp	r3, #2
  20611a:	d003      	beq.n	206124 <field_len+0x66>
  20611c:	2b03      	cmp	r3, #3
  20611e:	bf0c      	ite	eq
  206120:	2308      	moveq	r3, #8
  206122:	2300      	movne	r3, #0
  206124:	70ab      	strb	r3, [r5, #2]
  206126:	7e63      	ldrb	r3, [r4, #25]
  206128:	f003 0303 	and.w	r3, r3, #3
  20612c:	2b02      	cmp	r3, #2
  20612e:	d003      	beq.n	206138 <field_len+0x7a>
  206130:	2b03      	cmp	r3, #3
  206132:	bf0c      	ite	eq
  206134:	2308      	moveq	r3, #8
  206136:	2300      	movne	r3, #0
  206138:	712b      	strb	r3, [r5, #4]
  20613a:	b003      	add	sp, #12
  20613c:	bd30      	pop	{r4, r5, pc}

0020613e <frame802154_is_broadcast_addr>:
  20613e:	2802      	cmp	r0, #2
  206140:	bf0c      	ite	eq
  206142:	2302      	moveq	r3, #2
  206144:	2308      	movne	r3, #8
  206146:	440b      	add	r3, r1
  206148:	428b      	cmp	r3, r1
  20614a:	d005      	beq.n	206158 <frame802154_is_broadcast_addr+0x1a>
  20614c:	f813 2d01 	ldrb.w	r2, [r3, #-1]!
  206150:	2aff      	cmp	r2, #255	; 0xff
  206152:	d0f9      	beq.n	206148 <frame802154_is_broadcast_addr+0xa>
  206154:	2000      	movs	r0, #0
  206156:	4770      	bx	lr
  206158:	2001      	movs	r0, #1
  20615a:	4770      	bx	lr

0020615c <frame802154_hdrlen>:
  20615c:	b507      	push	{r0, r1, r2, lr}
  20615e:	4669      	mov	r1, sp
  206160:	f7ff ffad 	bl	2060be <field_len>
  206164:	f89d 0000 	ldrb.w	r0, [sp]
  206168:	f89d 3001 	ldrb.w	r3, [sp, #1]
  20616c:	3002      	adds	r0, #2
  20616e:	4418      	add	r0, r3
  206170:	f89d 3002 	ldrb.w	r3, [sp, #2]
  206174:	f89d 2003 	ldrb.w	r2, [sp, #3]
  206178:	4418      	add	r0, r3
  20617a:	f89d 3004 	ldrb.w	r3, [sp, #4]
  20617e:	4410      	add	r0, r2
  206180:	4403      	add	r3, r0
  206182:	f89d 0005 	ldrb.w	r0, [sp, #5]
  206186:	4418      	add	r0, r3
  206188:	b003      	add	sp, #12
  20618a:	f85d fb04 	ldr.w	pc, [sp], #4

0020618e <frame802154_create>:
  20618e:	b5f7      	push	{r0, r1, r2, r4, r5, r6, r7, lr}
  206190:	4604      	mov	r4, r0
  206192:	460d      	mov	r5, r1
  206194:	4669      	mov	r1, sp
  206196:	f7ff ff92 	bl	2060be <field_len>
  20619a:	7c61      	ldrb	r1, [r4, #17]
  20619c:	7ca3      	ldrb	r3, [r4, #18]
  20619e:	00c9      	lsls	r1, r1, #3
  2061a0:	011b      	lsls	r3, r3, #4
  2061a2:	f003 0310 	and.w	r3, r3, #16
  2061a6:	f001 0108 	and.w	r1, r1, #8
  2061aa:	7ce2      	ldrb	r2, [r4, #19]
  2061ac:	4319      	orrs	r1, r3
  2061ae:	7c23      	ldrb	r3, [r4, #16]
  2061b0:	0152      	lsls	r2, r2, #5
  2061b2:	f003 0307 	and.w	r3, r3, #7
  2061b6:	430b      	orrs	r3, r1
  2061b8:	f002 0220 	and.w	r2, r2, #32
  2061bc:	431a      	orrs	r2, r3
  2061be:	7d23      	ldrb	r3, [r4, #20]
  2061c0:	019b      	lsls	r3, r3, #6
  2061c2:	f003 0340 	and.w	r3, r3, #64	; 0x40
  2061c6:	4313      	orrs	r3, r2
  2061c8:	702b      	strb	r3, [r5, #0]
  2061ca:	7d63      	ldrb	r3, [r4, #21]
  2061cc:	7e62      	ldrb	r2, [r4, #25]
  2061ce:	7da1      	ldrb	r1, [r4, #22]
  2061d0:	f003 0301 	and.w	r3, r3, #1
  2061d4:	ea43 1382 	orr.w	r3, r3, r2, lsl #6
  2061d8:	7de2      	ldrb	r2, [r4, #23]
  2061da:	0049      	lsls	r1, r1, #1
  2061dc:	f001 0102 	and.w	r1, r1, #2
  2061e0:	0092      	lsls	r2, r2, #2
  2061e2:	430b      	orrs	r3, r1
  2061e4:	f002 020c 	and.w	r2, r2, #12
  2061e8:	431a      	orrs	r2, r3
  2061ea:	7e23      	ldrb	r3, [r4, #24]
  2061ec:	011b      	lsls	r3, r3, #4
  2061ee:	f003 0330 	and.w	r3, r3, #48	; 0x30
  2061f2:	4313      	orrs	r3, r2
  2061f4:	706b      	strb	r3, [r5, #1]
  2061f6:	f89d 3000 	ldrb.w	r3, [sp]
  2061fa:	2b01      	cmp	r3, #1
  2061fc:	bf02      	ittt	eq
  2061fe:	7ea3      	ldrbeq	r3, [r4, #26]
  206200:	2003      	moveq	r0, #3
  206202:	70ab      	strbeq	r3, [r5, #2]
  206204:	f89d 3001 	ldrb.w	r3, [sp, #1]
  206208:	bf18      	it	ne
  20620a:	2002      	movne	r0, #2
  20620c:	2b02      	cmp	r3, #2
  20620e:	d108      	bne.n	206222 <frame802154_create+0x94>
  206210:	8ba2      	ldrh	r2, [r4, #28]
  206212:	1c43      	adds	r3, r0, #1
  206214:	542a      	strb	r2, [r5, r0]
  206216:	8ba2      	ldrh	r2, [r4, #28]
  206218:	b2db      	uxtb	r3, r3
  20621a:	3002      	adds	r0, #2
  20621c:	0a12      	lsrs	r2, r2, #8
  20621e:	b2c0      	uxtb	r0, r0
  206220:	54ea      	strb	r2, [r5, r3]
  206222:	4601      	mov	r1, r0
  206224:	f89d 3002 	ldrb.w	r3, [sp, #2]
  206228:	18e2      	adds	r2, r4, r3
  20622a:	42a2      	cmp	r2, r4
  20622c:	d005      	beq.n	20623a <frame802154_create+0xac>
  20622e:	f812 7d01 	ldrb.w	r7, [r2, #-1]!
  206232:	1c4e      	adds	r6, r1, #1
  206234:	546f      	strb	r7, [r5, r1]
  206236:	b2f1      	uxtb	r1, r6
  206238:	e7f7      	b.n	20622a <frame802154_create+0x9c>
  20623a:	4418      	add	r0, r3
  20623c:	f89d 3003 	ldrb.w	r3, [sp, #3]
  206240:	b2c0      	uxtb	r0, r0
  206242:	2b02      	cmp	r3, #2
  206244:	d108      	bne.n	206258 <frame802154_create+0xca>
  206246:	8be2      	ldrh	r2, [r4, #30]
  206248:	1c43      	adds	r3, r0, #1
  20624a:	542a      	strb	r2, [r5, r0]
  20624c:	8be2      	ldrh	r2, [r4, #30]
  20624e:	b2db      	uxtb	r3, r3
  206250:	3002      	adds	r0, #2
  206252:	0a12      	lsrs	r2, r2, #8
  206254:	b2c0      	uxtb	r0, r0
  206256:	54ea      	strb	r2, [r5, r3]
  206258:	f89d 3004 	ldrb.w	r3, [sp, #4]
  20625c:	4418      	add	r0, r3
  20625e:	b2c0      	uxtb	r0, r0
  206260:	1ac2      	subs	r2, r0, r3
  206262:	b2d2      	uxtb	r2, r2
  206264:	b123      	cbz	r3, 206270 <frame802154_create+0xe2>
  206266:	3b01      	subs	r3, #1
  206268:	18e1      	adds	r1, r4, r3
  20626a:	7a09      	ldrb	r1, [r1, #8]
  20626c:	54a9      	strb	r1, [r5, r2]
  20626e:	e7f7      	b.n	206260 <frame802154_create+0xd2>
  206270:	b003      	add	sp, #12
  206272:	bdf0      	pop	{r4, r5, r6, r7, pc}

00206274 <parse>:
  206274:	b530      	push	{r4, r5, lr}
  206276:	b091      	sub	sp, #68	; 0x44
  206278:	f7fe fb0a 	bl	204890 <packetbuf_dataptr>
  20627c:	4604      	mov	r4, r0
  20627e:	f7fe fb1b 	bl	2048b8 <packetbuf_datalen>
  206282:	466a      	mov	r2, sp
  206284:	4601      	mov	r1, r0
  206286:	4620      	mov	r0, r4
  206288:	f7fe fdfe 	bl	204e88 <frame802154_parse>
  20628c:	4604      	mov	r4, r0
  20628e:	b910      	cbnz	r0, 206296 <parse+0x22>
  206290:	f04f 30ff 	mov.w	r0, #4294967295	; 0xffffffff
  206294:	e03b      	b.n	20630e <parse+0x9a>
  206296:	f7fe fae1 	bl	20485c <packetbuf_hdrreduce>
  20629a:	2800      	cmp	r0, #0
  20629c:	d0f8      	beq.n	206290 <parse+0x1c>
  20629e:	f89d 1010 	ldrb.w	r1, [sp, #16]
  2062a2:	2014      	movs	r0, #20
  2062a4:	f7fe fbaa 	bl	2049fc <packetbuf_set_attr>
  2062a8:	f89d 3017 	ldrb.w	r3, [sp, #23]
  2062ac:	b1ab      	cbz	r3, 2062da <parse+0x66>
  2062ae:	f8bd 501c 	ldrh.w	r5, [sp, #28]
  2062b2:	f7fe fde3 	bl	204e7c <frame802154_get_pan_id>
  2062b6:	4285      	cmp	r5, r0
  2062b8:	d005      	beq.n	2062c6 <parse+0x52>
  2062ba:	f64f 73ff 	movw	r3, #65535	; 0xffff
  2062be:	f8bd 201c 	ldrh.w	r2, [sp, #28]
  2062c2:	429a      	cmp	r2, r3
  2062c4:	d1e4      	bne.n	206290 <parse+0x1c>
  2062c6:	4669      	mov	r1, sp
  2062c8:	f89d 0017 	ldrb.w	r0, [sp, #23]
  2062cc:	f7ff ff37 	bl	20613e <frame802154_is_broadcast_addr>
  2062d0:	b918      	cbnz	r0, 2062da <parse+0x66>
  2062d2:	4669      	mov	r1, sp
  2062d4:	201b      	movs	r0, #27
  2062d6:	f7fe fb9f 	bl	204a18 <packetbuf_set_addr>
  2062da:	a902      	add	r1, sp, #8
  2062dc:	201a      	movs	r0, #26
  2062de:	f7fe fb9b 	bl	204a18 <packetbuf_set_addr>
  2062e2:	f89d 1012 	ldrb.w	r1, [sp, #18]
  2062e6:	2013      	movs	r0, #19
  2062e8:	f7fe fb88 	bl	2049fc <packetbuf_set_attr>
  2062ec:	f89d 3015 	ldrb.w	r3, [sp, #21]
  2062f0:	b913      	cbnz	r3, 2062f8 <parse+0x84>
  2062f2:	f89d 101a 	ldrb.w	r1, [sp, #26]
  2062f6:	e001      	b.n	2062fc <parse+0x88>
  2062f8:	f64f 71ff 	movw	r1, #65535	; 0xffff
  2062fc:	200a      	movs	r0, #10
  2062fe:	f7fe fb7d 	bl	2049fc <packetbuf_set_attr>
  206302:	f89d 101a 	ldrb.w	r1, [sp, #26]
  206306:	200e      	movs	r0, #14
  206308:	f7fe fb78 	bl	2049fc <packetbuf_set_attr>
  20630c:	4620      	mov	r0, r4
  20630e:	b011      	add	sp, #68	; 0x44
  206310:	bd30      	pop	{r4, r5, pc}

00206312 <create>:
  206312:	2001      	movs	r0, #1
  206314:	f7fe be6e 	b.w	204ff4 <create_frame.isra.0>

00206318 <hdr_length>:
  206318:	2000      	movs	r0, #0
  20631a:	f7fe be6b 	b.w	204ff4 <create_frame.isra.0>

0020631e <mac_call_sent_callback>:
  20631e:	b430      	push	{r4, r5}
  206320:	460d      	mov	r5, r1
  206322:	4604      	mov	r4, r0
  206324:	4611      	mov	r1, r2
  206326:	b120      	cbz	r0, 206332 <mac_call_sent_callback+0x14>
  206328:	461a      	mov	r2, r3
  20632a:	4628      	mov	r0, r5
  20632c:	4623      	mov	r3, r4
  20632e:	bc30      	pop	{r4, r5}
  206330:	4718      	bx	r3
  206332:	bc30      	pop	{r4, r5}
  206334:	4770      	bx	lr

00206336 <channel_check_interval>:
  206336:	2000      	movs	r0, #0
  206338:	4770      	bx	lr

0020633a <init>:
  20633a:	f7fe bf31 	b.w	2051a0 <on>

0020633e <send_list>:
  20633e:	b570      	push	{r4, r5, r6, lr}
  206340:	4604      	mov	r4, r0
  206342:	460d      	mov	r5, r1
  206344:	b152      	cbz	r2, 20635c <send_list+0x1e>
  206346:	6850      	ldr	r0, [r2, #4]
  206348:	6816      	ldr	r6, [r2, #0]
  20634a:	f7fe fbc7 	bl	204adc <queuebuf_to_packetbuf>
  20634e:	4629      	mov	r1, r5
  206350:	4620      	mov	r0, r4
  206352:	f7fe ff2b 	bl	2051ac <send_one_packet>
  206356:	b108      	cbz	r0, 20635c <send_list+0x1e>
  206358:	4632      	mov	r2, r6
  20635a:	e7f3      	b.n	206344 <send_list+0x6>
  20635c:	bd70      	pop	{r4, r5, r6, pc}

0020635e <send_packet>:
  20635e:	f7fe bf25 	b.w	2051ac <send_one_packet>

00206362 <init>:
  206362:	4770      	bx	lr

00206364 <rt_callback>:
  206364:	2040      	movs	r0, #64	; 0x40
  206366:	f7fd bf35 	b.w	2041d4 <leds_off>
	...

0020636c <button_user_sensor>:
  20636c:	6583 0020 0000 0000 2499 0020 0000 0000     .e ......$ .....

0020637c <uart_regs>:
  20637c:	0001 0000 0001 0000 0001 0000 c000 4000     ...............@
  20638c:	4100 400d 0000 0000 0008 0000 002c 0000     .A.@........,...
  20639c:	0000 0100 ffff ffff 0005 0000 0002 0000     ................
  2063ac:	0002 0000 0002 0000 d000 4000 4108 400d     ...........@.A.@
  2063bc:	0002 0000 0008 0000 002c 0000 ffff ffff     ........,.......
  2063cc:	0001 0303 0006 0000                         ........

002063d4 <cc2538_rf_driver>:
  2063d4:	30bd 0020 2dc9 0020 2e2d 0020 5ab7 0020     .0 ..- .-. ..Z .
  2063e4:	2ff9 0020 2c49 0020 2c85 0020 2c9d 0020     ./ .I, .., .., .
  2063f4:	2b9d 0020 2bc9 0020 2cad 0020 2eb9 0020     .+ ..+ .., ... .
  206404:	2f99 0020 2fc9 0020                         ./ ../ .

0020640c <output_power>:
  20640c:	0007 0000 00ff 0000 0005 0000 00ed 0000     ................
  20641c:	0003 0000 00d5 0000 0001 0000 00c5 0000     ................
  20642c:	0000 0000 00b6 0000 ffff ffff 00b0 0000     ................
  20643c:	fffd ffff 00a1 0000 fffb ffff 0091 0000     ................
  20644c:	fff9 ffff 0088 0000 fff7 ffff 0072 0000     ............r...
  20645c:	fff5 ffff 0062 0000 fff3 ffff 0058 0000     ....b.......X...
  20646c:	fff1 ffff 0042 0000 ffe8 ffff 0000 0000     ....B...........

0020647c <broadcast_callbacks>:
  20647c:	5d0b 0020 5d09 0020                         .] ..] .

00206484 <broadcast>:
  206484:	5d59 0020 5d4f 0020                         Y] .O] .

0020648c <chameleon_bitopt>:
  20648c:	5e0b 0020 5f79 0020 5d7f 0020               .^ .y_ ..] .

00206498 <rime_driver>:
  206498:	6630 0020 601d 0020 4749 0020               0f ..` .IG .

002064a4 <csma_driver>:
  2064a4:	6635 0020 4cc9 0020 4b71 0020 4b0d 0020     5f ..L .qK ..K .
  2064b4:	4b19 0020 4b25 0020 4b31 0020               .K .%K .1K .

002064c0 <framer_802154>:
  2064c0:	6319 0020 6313 0020 6275 0020               .c ..c .ub .

002064cc <nullrdc_driver>:
  2064cc:	663a 0020 633b 0020 635f 0020 633f 0020     :f .;c ._c .?c .
  2064dc:	52e1 0020 51a1 0020 52c9 0020 6337 0020     .R ..Q ..R .7c .

002064ec <contikimac_framer>:
  2064ec:	5335 0020 537d 0020 5345 0020               5S .}S .ES .

002064f8 <nullsec_driver>:
  2064f8:	6642 0020 6363 0020 53f5 0020 53e9 0020     Bf .cc ..S ..S .

00206508 <autostart_processes>:
  206508:	00dc 2000 0000 0000                         ... ....

00206510 <bc_rx>:
  206510:	54e9 0020 0000 0000                         .T .....

00206518 <linkaddr_null>:
  206518:	0000 6f43 746e 6b69 2d69 2e33 2d78 3132     ..Contiki-3.x-21
  206528:	3735 672d 3537 3033 3535 0064 704f 6e65     57-g753055d.Open
  206538:	6f4d 6574 432d 3243 3335 0038 6952 656d     Mote-CC2538.Rime
  206548:	6320 6e6f 6966 7567 6572 2064 6977 6874      configured with
  206558:	6120 6464 6572 7373 0020 3025 7832 003a      address .%02x:.
  206568:	3025 7832 000a 4e20 7465 203a 2000 414d     %02x.. Net: . MA
  206578:	3a43 0020 5220 4344 203a 4200 7475 6f74     C: . RDC: .Butto
  206588:	006e 6363 3532 3833 5220 2046 7264 7669     n.cc2538 RF driv
  206598:	7265 3000 3231 3433 3635 3837 4139 4342     er.0123456789ABC
  2065a8:	4544 0046 3130 3332 3534 3736 3938 6261     DEF.0123456789ab
  2065b8:	6463 6665 3000 0078 5830 2d00 2b00 2800     cdef.0x.0X.-.+.(
  2065c8:	756e 6c6c 0029 0025                         null).%.

002065d0 <buffer.4238>:
  2065d0:	2020 2020 2020 2020 2020 2020 2020 2020                     

002065e0 <buffer.4247>:
  2065e0:	3030 3030 3030 3030 3030 3030 3030 3030     0000000000000000
  2065f0:	7443 6d69 7265 7020 6f72 6563 7373 4500     Ctimer process.E
  206600:	6576 746e 7420 6d69 7265 5300 7265 6169     vent timer.Seria
  206610:	206c 7264 7669 7265 5300 6e65 6f73 7372     l driver.Sensors
	...

00206621 <attributes>:
	...

00206623 <attributes>:
  206623:	101a 0000                                   ....

00206627 <bitmask>:
  206627:	8000 e0c0 f8f0 fefc 52ff 6d69 0065 5343     .........Rime.CS
  206637:	414d 6e00 6c75 726c 6364 6e00 6c75 736c     MA.nullrdc.nulls
  206647:	6365 4300 756f 746e 7265 3d20 3020 2578     ec.Counter = 0x%
  206657:	3830 0d78 000a 6552 6563 7669 6465 2520     08x...Received %
  206667:	2075 7962 6574 3a73 2720 7830 3025 7834     u bytes: '0x%04x
  206677:	0a27 000d 704f 6e65 6f4d 6574 432d 3243     '...OpenMote-CC2
  206687:	3335 2038 6564 6f6d 7020 6f72 6563 7373     538 demo process
	...
